
max31865_lib_settup.elf:     file format elf32-avr

Sections:
Idx Name          Size      VMA       LMA       File off  Algn
  0 .data         0000003a  00800100  00001674  00001708  2**0
                  CONTENTS, ALLOC, LOAD, DATA
  1 .text         00001674  00000000  00000000  00000094  2**1
                  CONTENTS, ALLOC, LOAD, READONLY, CODE
  2 .bss          00000009  0080013a  0080013a  00001742  2**0
                  ALLOC
  3 .comment      0000005c  00000000  00000000  00001742  2**0
                  CONTENTS, READONLY
  4 .note.gnu.avr.deviceinfo 00000040  00000000  00000000  000017a0  2**2
                  CONTENTS, READONLY
  5 .debug_aranges 000003d8  00000000  00000000  000017e0  2**0
                  CONTENTS, READONLY, DEBUGGING
  6 .debug_info   00002550  00000000  00000000  00001bb8  2**0
                  CONTENTS, READONLY, DEBUGGING
  7 .debug_abbrev 00000db6  00000000  00000000  00004108  2**0
                  CONTENTS, READONLY, DEBUGGING
  8 .debug_line   000013bd  00000000  00000000  00004ebe  2**0
                  CONTENTS, READONLY, DEBUGGING
  9 .debug_frame  00000ca0  00000000  00000000  0000627c  2**2
                  CONTENTS, READONLY, DEBUGGING
 10 .debug_str    000014f6  00000000  00000000  00006f1c  2**0
                  CONTENTS, READONLY, DEBUGGING
 11 .debug_loc    00001711  00000000  00000000  00008412  2**0
                  CONTENTS, READONLY, DEBUGGING
 12 .debug_ranges 00000388  00000000  00000000  00009b23  2**0
                  CONTENTS, READONLY, DEBUGGING

Disassembly of section .text:

00000000 <__vectors>:
       0:	0c 94 b5 00 	jmp	0x16a	; 0x16a <__ctors_end>
       4:	0c 94 d2 00 	jmp	0x1a4	; 0x1a4 <__bad_interrupt>
       8:	0c 94 d2 00 	jmp	0x1a4	; 0x1a4 <__bad_interrupt>
       c:	0c 94 d2 00 	jmp	0x1a4	; 0x1a4 <__bad_interrupt>
      10:	0c 94 d2 00 	jmp	0x1a4	; 0x1a4 <__bad_interrupt>
      14:	0c 94 d2 00 	jmp	0x1a4	; 0x1a4 <__bad_interrupt>
      18:	0c 94 d2 00 	jmp	0x1a4	; 0x1a4 <__bad_interrupt>
      1c:	0c 94 d2 00 	jmp	0x1a4	; 0x1a4 <__bad_interrupt>
      20:	0c 94 d2 00 	jmp	0x1a4	; 0x1a4 <__bad_interrupt>
      24:	0c 94 d2 00 	jmp	0x1a4	; 0x1a4 <__bad_interrupt>
      28:	0c 94 d2 00 	jmp	0x1a4	; 0x1a4 <__bad_interrupt>
      2c:	0c 94 d2 00 	jmp	0x1a4	; 0x1a4 <__bad_interrupt>
      30:	0c 94 d2 00 	jmp	0x1a4	; 0x1a4 <__bad_interrupt>
      34:	0c 94 d2 00 	jmp	0x1a4	; 0x1a4 <__bad_interrupt>
      38:	0c 94 90 01 	jmp	0x320	; 0x320 <__vector_14>
      3c:	0c 94 bb 01 	jmp	0x376	; 0x376 <__vector_15>
      40:	0c 94 e6 01 	jmp	0x3cc	; 0x3cc <__vector_16>
      44:	0c 94 31 01 	jmp	0x262	; 0x262 <__vector_17>
      48:	0c 94 6f 02 	jmp	0x4de	; 0x4de <__vector_18>
      4c:	0c 94 96 02 	jmp	0x52c	; 0x52c <__vector_19>
      50:	0c 94 bd 02 	jmp	0x57a	; 0x57a <__vector_20>
      54:	0c 94 d2 00 	jmp	0x1a4	; 0x1a4 <__bad_interrupt>
      58:	0c 94 d2 00 	jmp	0x1a4	; 0x1a4 <__bad_interrupt>
      5c:	0c 94 d2 00 	jmp	0x1a4	; 0x1a4 <__bad_interrupt>
      60:	0c 94 d2 00 	jmp	0x1a4	; 0x1a4 <__bad_interrupt>
      64:	0c 94 d2 00 	jmp	0x1a4	; 0x1a4 <__bad_interrupt>

00000068 <__trampolines_end>:
      68:	6e 61       	ori	r22, 0x1E	; 30
      6a:	6e 00       	.word	0x006e	; ????

0000006c <__c.2332>:
      6c:	69 6e 66 00 00 40 7a 10 f3 5a 00 a0 72 4e 18 09     inf..@z..Z..rN..
      7c:	00 10 a5 d4 e8 00 00 e8 76 48 17 00 00 e4 0b 54     ........vH.....T
      8c:	02 00 00 ca 9a 3b 00 00 00 e1 f5 05 00 00 80 96     .....;..........
      9c:	98 00 00 00 40 42 0f 00 00 00 a0 86 01 00 00 00     ....@B..........
      ac:	10 27 00 00 00 00 e8 03 00 00 00 00 64 00 00 00     .'..........d...
      bc:	00 00 0a 00 00 00 00 00 01 00 00 00 00 00 2c 76     ..............,v
      cc:	d8 88 dc 67 4f 08 23 df c1 df ae 59 e1 b1 b7 96     ...gO.#....Y....
      dc:	e5 e3 e4 53 c6 3a e6 51 99 76 96 e8 e6 c2 84 26     ...S.:.Q.v.....&
      ec:	eb 89 8c 9b 62 ed 40 7c 6f fc ef bc 9c 9f 40 f2     ....b.@|o.....@.
      fc:	ba a5 6f a5 f4 90 05 5a 2a f7 5c 93 6b 6c f9 67     ..o....Z*.\.kl.g
     10c:	6d c1 1b fc e0 e4 0d 47 fe f5 20 e6 b5 00 d0 ed     m......G.. .....
     11c:	90 2e 03 00 94 35 77 05 00 80 84 1e 08 00 00 20     .....5w........ 
     12c:	4e 0a 00 00 00 c8 0c 33 33 33 33 0f 98 6e 12 83     N......3333..n..
     13c:	11 41 ef 8d 21 14 89 3b e6 55 16 cf fe e6 db 18     .A..!..;.U......
     14c:	d1 84 4b 38 1b f7 7c 1d 90 1d a4 bb e4 24 20 32     ..K8..|......$ 2
     15c:	84 72 5e 22 81 00 c9 f1 24 ec a1 e5 3d 27           .r^"....$...='

0000016a <__ctors_end>:
     16a:	11 24       	eor	r1, r1
     16c:	1f be       	out	0x3f, r1	; 63
     16e:	cf ef       	ldi	r28, 0xFF	; 255
     170:	d8 e0       	ldi	r29, 0x08	; 8
     172:	de bf       	out	0x3e, r29	; 62
     174:	cd bf       	out	0x3d, r28	; 61

00000176 <__do_copy_data>:
     176:	11 e0       	ldi	r17, 0x01	; 1
     178:	a0 e0       	ldi	r26, 0x00	; 0
     17a:	b1 e0       	ldi	r27, 0x01	; 1
     17c:	e4 e7       	ldi	r30, 0x74	; 116
     17e:	f6 e1       	ldi	r31, 0x16	; 22
     180:	02 c0       	rjmp	.+4      	; 0x186 <__do_copy_data+0x10>
     182:	05 90       	lpm	r0, Z+
     184:	0d 92       	st	X+, r0
     186:	aa 33       	cpi	r26, 0x3A	; 58
     188:	b1 07       	cpc	r27, r17
     18a:	d9 f7       	brne	.-10     	; 0x182 <__do_copy_data+0xc>

0000018c <__do_clear_bss>:
     18c:	21 e0       	ldi	r18, 0x01	; 1
     18e:	aa e3       	ldi	r26, 0x3A	; 58
     190:	b1 e0       	ldi	r27, 0x01	; 1
     192:	01 c0       	rjmp	.+2      	; 0x196 <.do_clear_bss_start>

00000194 <.do_clear_bss_loop>:
     194:	1d 92       	st	X+, r1

00000196 <.do_clear_bss_start>:
     196:	a3 34       	cpi	r26, 0x43	; 67
     198:	b2 07       	cpc	r27, r18
     19a:	e1 f7       	brne	.-8      	; 0x194 <.do_clear_bss_loop>
     19c:	0e 94 39 03 	call	0x672	; 0x672 <main>
     1a0:	0c 94 38 0b 	jmp	0x1670	; 0x1670 <_exit>

000001a4 <__bad_interrupt>:
     1a4:	0c 94 00 00 	jmp	0	; 0x0 <__vectors>

000001a8 <dummy>:
}

void hal_SPI_unregisterTransferCompletionCallback()
{
	callback = dummy;
	SPCR &= ~(1 << SPIE);
     1a8:	08 95       	ret

000001aa <hal_SPI_enableModule>:
     1aa:	e4 e6       	ldi	r30, 0x64	; 100
     1ac:	f0 e0       	ldi	r31, 0x00	; 0
     1ae:	80 81       	ld	r24, Z
     1b0:	8b 7f       	andi	r24, 0xFB	; 251
     1b2:	80 83       	st	Z, r24
     1b4:	08 95       	ret

000001b6 <hal_SPI_enable_TRX>:
     1b6:	8c b5       	in	r24, 0x2c	; 44
     1b8:	80 64       	ori	r24, 0x40	; 64
     1ba:	8c bd       	out	0x2c, r24	; 44
     1bc:	08 95       	ret

000001be <hal_SPI_dataDirectionOrder>:
     1be:	9c b5       	in	r25, 0x2c	; 44
     1c0:	9f 7d       	andi	r25, 0xDF	; 223
     1c2:	9c bd       	out	0x2c, r25	; 44
     1c4:	2c b5       	in	r18, 0x2c	; 44
     1c6:	30 e2       	ldi	r19, 0x20	; 32
     1c8:	83 9f       	mul	r24, r19
     1ca:	c0 01       	movw	r24, r0
     1cc:	11 24       	eor	r1, r1
     1ce:	82 2b       	or	r24, r18
     1d0:	8c bd       	out	0x2c, r24	; 44
     1d2:	08 95       	ret

000001d4 <hal_SPI_setMode>:
     1d4:	9c b5       	in	r25, 0x2c	; 44
     1d6:	9f 7e       	andi	r25, 0xEF	; 239
     1d8:	9c bd       	out	0x2c, r25	; 44
     1da:	9c b5       	in	r25, 0x2c	; 44
     1dc:	40 e1       	ldi	r20, 0x10	; 16
     1de:	84 9f       	mul	r24, r20
     1e0:	90 01       	movw	r18, r0
     1e2:	11 24       	eor	r1, r1
     1e4:	29 2b       	or	r18, r25
     1e6:	2c bd       	out	0x2c, r18	; 44
     1e8:	81 30       	cpi	r24, 0x01	; 1
     1ea:	31 f4       	brne	.+12     	; 0x1f8 <hal_SPI_setMode+0x24>
     1ec:	84 b1       	in	r24, 0x04	; 4
     1ee:	8c 62       	ori	r24, 0x2C	; 44
     1f0:	84 b9       	out	0x04, r24	; 4
     1f2:	24 98       	cbi	0x04, 4	; 4
     1f4:	2a 98       	cbi	0x05, 2	; 5
     1f6:	08 95       	ret
     1f8:	81 11       	cpse	r24, r1
     1fa:	04 c0       	rjmp	.+8      	; 0x204 <hal_SPI_setMode+0x30>
     1fc:	84 b1       	in	r24, 0x04	; 4
     1fe:	83 7d       	andi	r24, 0xD3	; 211
     200:	84 b9       	out	0x04, r24	; 4
     202:	24 9a       	sbi	0x04, 4	; 4
     204:	08 95       	ret

00000206 <hal_SPI_setClockPolarity>:
     206:	9c b5       	in	r25, 0x2c	; 44
     208:	97 7f       	andi	r25, 0xF7	; 247
     20a:	9c bd       	out	0x2c, r25	; 44
     20c:	2c b5       	in	r18, 0x2c	; 44
     20e:	38 e0       	ldi	r19, 0x08	; 8
     210:	83 9f       	mul	r24, r19
     212:	c0 01       	movw	r24, r0
     214:	11 24       	eor	r1, r1
     216:	82 2b       	or	r24, r18
     218:	8c bd       	out	0x2c, r24	; 44
     21a:	08 95       	ret

0000021c <hal_SPI_setClockPhase>:
     21c:	9c b5       	in	r25, 0x2c	; 44
     21e:	9b 7f       	andi	r25, 0xFB	; 251
     220:	9c bd       	out	0x2c, r25	; 44
     222:	2c b5       	in	r18, 0x2c	; 44
     224:	34 e0       	ldi	r19, 0x04	; 4
     226:	83 9f       	mul	r24, r19
     228:	c0 01       	movw	r24, r0
     22a:	11 24       	eor	r1, r1
     22c:	82 2b       	or	r24, r18
     22e:	8c bd       	out	0x2c, r24	; 44
     230:	08 95       	ret

00000232 <hal_SPI_setClockRate>:
     232:	9c b5       	in	r25, 0x2c	; 44
     234:	9c 7f       	andi	r25, 0xFC	; 252
     236:	9c bd       	out	0x2c, r25	; 44
     238:	9c b5       	in	r25, 0x2c	; 44
     23a:	28 2f       	mov	r18, r24
     23c:	23 70       	andi	r18, 0x03	; 3
     23e:	92 2b       	or	r25, r18
     240:	9c bd       	out	0x2c, r25	; 44
     242:	9d b5       	in	r25, 0x2d	; 45
     244:	86 95       	lsr	r24
     246:	86 95       	lsr	r24
     248:	89 2b       	or	r24, r25
     24a:	8d bd       	out	0x2d, r24	; 45
     24c:	08 95       	ret

0000024e <hal_SPI_trx>:
     24e:	8e bd       	out	0x2e, r24	; 46
     250:	0d b4       	in	r0, 0x2d	; 45
     252:	07 fe       	sbrs	r0, 7
     254:	fd cf       	rjmp	.-6      	; 0x250 <hal_SPI_trx+0x2>
     256:	8e b5       	in	r24, 0x2e	; 46
     258:	08 95       	ret

0000025a <hal_SPI_dissableInterrupt>:
     25a:	8c b5       	in	r24, 0x2c	; 44
     25c:	8f 77       	andi	r24, 0x7F	; 127
     25e:	8c bd       	out	0x2c, r24	; 44
     260:	08 95       	ret

00000262 <__vector_17>:
}

ISR(SPI_STC_vect)
{
     262:	1f 92       	push	r1
     264:	0f 92       	push	r0
     266:	0f b6       	in	r0, 0x3f	; 63
     268:	0f 92       	push	r0
     26a:	11 24       	eor	r1, r1
     26c:	2f 93       	push	r18
     26e:	3f 93       	push	r19
     270:	4f 93       	push	r20
     272:	5f 93       	push	r21
     274:	6f 93       	push	r22
     276:	7f 93       	push	r23
     278:	8f 93       	push	r24
     27a:	9f 93       	push	r25
     27c:	af 93       	push	r26
     27e:	bf 93       	push	r27
     280:	ef 93       	push	r30
     282:	ff 93       	push	r31
	callback();
     284:	e0 91 00 01 	lds	r30, 0x0100	; 0x800100 <__data_start>
     288:	f0 91 01 01 	lds	r31, 0x0101	; 0x800101 <__data_start+0x1>
     28c:	09 95       	icall
     28e:	ff 91       	pop	r31
     290:	ef 91       	pop	r30
     292:	bf 91       	pop	r27
     294:	af 91       	pop	r26
     296:	9f 91       	pop	r25
     298:	8f 91       	pop	r24
     29a:	7f 91       	pop	r23
     29c:	6f 91       	pop	r22
     29e:	5f 91       	pop	r21
     2a0:	4f 91       	pop	r20
     2a2:	3f 91       	pop	r19
     2a4:	2f 91       	pop	r18
     2a6:	0f 90       	pop	r0
     2a8:	0f be       	out	0x3f, r0	; 63
     2aa:	0f 90       	pop	r0
     2ac:	1f 90       	pop	r1
     2ae:	18 95       	reti

000002b0 <dummy>:
	t0_compareMatchEnableRoutineB_FLG = 1;
}

void hal_timer0_compreMatch_dissableCBroutineB()
{
	t0_compareMatchEnableRoutineB_FLG = 0;
     2b0:	08 95       	ret

000002b2 <hal_timer0_enableModule>:
     2b2:	e4 e6       	ldi	r30, 0x64	; 100
     2b4:	f0 e0       	ldi	r31, 0x00	; 0
     2b6:	80 81       	ld	r24, Z
     2b8:	8f 7d       	andi	r24, 0xDF	; 223
     2ba:	80 83       	st	Z, r24
     2bc:	08 95       	ret

000002be <hal_timer0_setMode>:
     2be:	94 b5       	in	r25, 0x24	; 36
     2c0:	9c 7f       	andi	r25, 0xFC	; 252
     2c2:	94 bd       	out	0x24, r25	; 36
     2c4:	95 b5       	in	r25, 0x25	; 37
     2c6:	97 7f       	andi	r25, 0xF7	; 247
     2c8:	95 bd       	out	0x25, r25	; 37
     2ca:	94 b5       	in	r25, 0x24	; 36
     2cc:	28 2f       	mov	r18, r24
     2ce:	23 70       	andi	r18, 0x03	; 3
     2d0:	92 2b       	or	r25, r18
     2d2:	94 bd       	out	0x24, r25	; 36
     2d4:	95 b5       	in	r25, 0x25	; 37
     2d6:	88 70       	andi	r24, 0x08	; 8
     2d8:	89 2b       	or	r24, r25
     2da:	85 bd       	out	0x25, r24	; 37
     2dc:	08 95       	ret

000002de <hal_timer0_setCompareValueA>:
     2de:	87 bd       	out	0x27, r24	; 39
     2e0:	08 95       	ret

000002e2 <hal_timer0_setCompareValueB>:
     2e2:	88 bd       	out	0x28, r24	; 40
     2e4:	08 95       	ret

000002e6 <hal_timer0_setOutputA>:
     2e6:	94 b5       	in	r25, 0x24	; 36
     2e8:	9f 73       	andi	r25, 0x3F	; 63
     2ea:	94 bd       	out	0x24, r25	; 36
     2ec:	94 b5       	in	r25, 0x24	; 36
     2ee:	98 2b       	or	r25, r24
     2f0:	94 bd       	out	0x24, r25	; 36
     2f2:	81 11       	cpse	r24, r1
     2f4:	56 9a       	sbi	0x0a, 6	; 10
     2f6:	08 95       	ret

000002f8 <hal_timer0_setOutputB>:
     2f8:	94 b5       	in	r25, 0x24	; 36
     2fa:	9f 7c       	andi	r25, 0xCF	; 207
     2fc:	94 bd       	out	0x24, r25	; 36
     2fe:	94 b5       	in	r25, 0x24	; 36
     300:	98 2b       	or	r25, r24
     302:	94 bd       	out	0x24, r25	; 36
     304:	81 11       	cpse	r24, r1
     306:	55 9a       	sbi	0x0a, 5	; 10
     308:	08 95       	ret

0000030a <hal_timer0_setClockSource>:
     30a:	95 b5       	in	r25, 0x25	; 37
     30c:	9f 78       	andi	r25, 0x8F	; 143
     30e:	95 bd       	out	0x25, r25	; 37
     310:	95 b5       	in	r25, 0x25	; 37
     312:	98 2b       	or	r25, r24
     314:	95 bd       	out	0x25, r25	; 37
     316:	86 30       	cpi	r24, 0x06	; 6
     318:	11 f4       	brne	.+4      	; 0x31e <hal_timer0_setClockSource+0x14>
     31a:	54 98       	cbi	0x0a, 4	; 10
     31c:	5c 98       	cbi	0x0b, 4	; 11
     31e:	08 95       	ret

00000320 <__vector_14>:
}

// compare match ISR for COMPA
ISR(TIMER0_COMPA_vect)
{
     320:	1f 92       	push	r1
     322:	0f 92       	push	r0
     324:	0f b6       	in	r0, 0x3f	; 63
     326:	0f 92       	push	r0
     328:	11 24       	eor	r1, r1
     32a:	2f 93       	push	r18
     32c:	3f 93       	push	r19
     32e:	4f 93       	push	r20
     330:	5f 93       	push	r21
     332:	6f 93       	push	r22
     334:	7f 93       	push	r23
     336:	8f 93       	push	r24
     338:	9f 93       	push	r25
     33a:	af 93       	push	r26
     33c:	bf 93       	push	r27
     33e:	ef 93       	push	r30
     340:	ff 93       	push	r31
	if(t0_compareMatchEnableRoutineA_FLG) t0_compareMatchACallBack();
     342:	80 91 3b 01 	lds	r24, 0x013B	; 0x80013b <t0_compareMatchEnableRoutineA_FLG>
     346:	88 23       	and	r24, r24
     348:	29 f0       	breq	.+10     	; 0x354 <__vector_14+0x34>
     34a:	e0 91 04 01 	lds	r30, 0x0104	; 0x800104 <t0_compareMatchACallBack>
     34e:	f0 91 05 01 	lds	r31, 0x0105	; 0x800105 <t0_compareMatchACallBack+0x1>
     352:	09 95       	icall
}
     354:	ff 91       	pop	r31
     356:	ef 91       	pop	r30
     358:	bf 91       	pop	r27
     35a:	af 91       	pop	r26
     35c:	9f 91       	pop	r25
     35e:	8f 91       	pop	r24
     360:	7f 91       	pop	r23
     362:	6f 91       	pop	r22
     364:	5f 91       	pop	r21
     366:	4f 91       	pop	r20
     368:	3f 91       	pop	r19
     36a:	2f 91       	pop	r18
     36c:	0f 90       	pop	r0
     36e:	0f be       	out	0x3f, r0	; 63
     370:	0f 90       	pop	r0
     372:	1f 90       	pop	r1
     374:	18 95       	reti

00000376 <__vector_15>:

// compare match ISR for COMPB
ISR(TIMER0_COMPB_vect)
{
     376:	1f 92       	push	r1
     378:	0f 92       	push	r0
     37a:	0f b6       	in	r0, 0x3f	; 63
     37c:	0f 92       	push	r0
     37e:	11 24       	eor	r1, r1
     380:	2f 93       	push	r18
     382:	3f 93       	push	r19
     384:	4f 93       	push	r20
     386:	5f 93       	push	r21
     388:	6f 93       	push	r22
     38a:	7f 93       	push	r23
     38c:	8f 93       	push	r24
     38e:	9f 93       	push	r25
     390:	af 93       	push	r26
     392:	bf 93       	push	r27
     394:	ef 93       	push	r30
     396:	ff 93       	push	r31
	if(t0_compareMatchEnableRoutineB_FLG) t0_compareMatchBCallBack();
     398:	80 91 3a 01 	lds	r24, 0x013A	; 0x80013a <__data_end>
     39c:	88 23       	and	r24, r24
     39e:	29 f0       	breq	.+10     	; 0x3aa <__vector_15+0x34>
     3a0:	e0 91 02 01 	lds	r30, 0x0102	; 0x800102 <t0_compareMatchBCallBack>
     3a4:	f0 91 03 01 	lds	r31, 0x0103	; 0x800103 <t0_compareMatchBCallBack+0x1>
     3a8:	09 95       	icall
}
     3aa:	ff 91       	pop	r31
     3ac:	ef 91       	pop	r30
     3ae:	bf 91       	pop	r27
     3b0:	af 91       	pop	r26
     3b2:	9f 91       	pop	r25
     3b4:	8f 91       	pop	r24
     3b6:	7f 91       	pop	r23
     3b8:	6f 91       	pop	r22
     3ba:	5f 91       	pop	r21
     3bc:	4f 91       	pop	r20
     3be:	3f 91       	pop	r19
     3c0:	2f 91       	pop	r18
     3c2:	0f 90       	pop	r0
     3c4:	0f be       	out	0x3f, r0	; 63
     3c6:	0f 90       	pop	r0
     3c8:	1f 90       	pop	r1
     3ca:	18 95       	reti

000003cc <__vector_16>:

// overflow match
ISR(TIMER0_OVF_vect)
{
     3cc:	1f 92       	push	r1
     3ce:	0f 92       	push	r0
     3d0:	0f b6       	in	r0, 0x3f	; 63
     3d2:	0f 92       	push	r0
     3d4:	11 24       	eor	r1, r1
     3d6:	2f 93       	push	r18
     3d8:	3f 93       	push	r19
     3da:	4f 93       	push	r20
     3dc:	5f 93       	push	r21
     3de:	6f 93       	push	r22
     3e0:	7f 93       	push	r23
     3e2:	8f 93       	push	r24
     3e4:	9f 93       	push	r25
     3e6:	af 93       	push	r26
     3e8:	bf 93       	push	r27
     3ea:	ef 93       	push	r30
     3ec:	ff 93       	push	r31
	if(t0_overflowEnbaleRoutine_FLG) t0_overflowCallBack();
     3ee:	80 91 3c 01 	lds	r24, 0x013C	; 0x80013c <t0_overflowEnbaleRoutine_FLG>
     3f2:	88 23       	and	r24, r24
     3f4:	29 f0       	breq	.+10     	; 0x400 <__LOCK_REGION_LENGTH__>
     3f6:	e0 91 06 01 	lds	r30, 0x0106	; 0x800106 <t0_overflowCallBack>
     3fa:	f0 91 07 01 	lds	r31, 0x0107	; 0x800107 <t0_overflowCallBack+0x1>
     3fe:	09 95       	icall
}
     400:	ff 91       	pop	r31
     402:	ef 91       	pop	r30
     404:	bf 91       	pop	r27
     406:	af 91       	pop	r26
     408:	9f 91       	pop	r25
     40a:	8f 91       	pop	r24
     40c:	7f 91       	pop	r23
     40e:	6f 91       	pop	r22
     410:	5f 91       	pop	r21
     412:	4f 91       	pop	r20
     414:	3f 91       	pop	r19
     416:	2f 91       	pop	r18
     418:	0f 90       	pop	r0
     41a:	0f be       	out	0x3f, r0	; 63
     41c:	0f 90       	pop	r0
     41e:	1f 90       	pop	r1
     420:	18 95       	reti

00000422 <dummy>:
}

void hal_USART_unregisterTXCallback()
{
	UCSR0B &= ~(1 << TXCIE0);
	txCallback = dummy;
     422:	08 95       	ret

00000424 <hal_USART_enableModule>:
     424:	e4 e6       	ldi	r30, 0x64	; 100
     426:	f0 e0       	ldi	r31, 0x00	; 0
     428:	80 81       	ld	r24, Z
     42a:	8d 7f       	andi	r24, 0xFD	; 253
     42c:	80 83       	st	Z, r24
     42e:	08 95       	ret

00000430 <hal_USART_TxEnable>:
     430:	e1 ec       	ldi	r30, 0xC1	; 193
     432:	f0 e0       	ldi	r31, 0x00	; 0
     434:	80 81       	ld	r24, Z
     436:	88 60       	ori	r24, 0x08	; 8
     438:	80 83       	st	Z, r24
     43a:	08 95       	ret

0000043c <hal_USART_setCharSize>:
     43c:	e1 ec       	ldi	r30, 0xC1	; 193
     43e:	f0 e0       	ldi	r31, 0x00	; 0
     440:	90 81       	ld	r25, Z
     442:	9b 7f       	andi	r25, 0xFB	; 251
     444:	90 83       	st	Z, r25
     446:	e2 ec       	ldi	r30, 0xC2	; 194
     448:	f0 e0       	ldi	r31, 0x00	; 0
     44a:	90 81       	ld	r25, Z
     44c:	99 7f       	andi	r25, 0xF9	; 249
     44e:	90 83       	st	Z, r25
     450:	90 81       	ld	r25, Z
     452:	83 70       	andi	r24, 0x03	; 3
     454:	88 0f       	add	r24, r24
     456:	98 2b       	or	r25, r24
     458:	90 83       	st	Z, r25
     45a:	08 95       	ret

0000045c <hal_USART_setBaudRate>:
     45c:	dc 01       	movw	r26, r24
     45e:	cb 01       	movw	r24, r22
     460:	88 0f       	add	r24, r24
     462:	99 1f       	adc	r25, r25
     464:	aa 1f       	adc	r26, r26
     466:	bb 1f       	adc	r27, r27
     468:	88 0f       	add	r24, r24
     46a:	99 1f       	adc	r25, r25
     46c:	aa 1f       	adc	r26, r26
     46e:	bb 1f       	adc	r27, r27
     470:	9c 01       	movw	r18, r24
     472:	ad 01       	movw	r20, r26
     474:	22 0f       	add	r18, r18
     476:	33 1f       	adc	r19, r19
     478:	44 1f       	adc	r20, r20
     47a:	55 1f       	adc	r21, r21
     47c:	22 0f       	add	r18, r18
     47e:	33 1f       	adc	r19, r19
     480:	44 1f       	adc	r20, r20
     482:	55 1f       	adc	r21, r21
     484:	60 e0       	ldi	r22, 0x00	; 0
     486:	74 e2       	ldi	r23, 0x24	; 36
     488:	84 ef       	ldi	r24, 0xF4	; 244
     48a:	90 e0       	ldi	r25, 0x00	; 0
     48c:	0e 94 35 09 	call	0x126a	; 0x126a <__udivmodsi4>
     490:	8f ef       	ldi	r24, 0xFF	; 255
     492:	82 0f       	add	r24, r18
     494:	80 93 c4 00 	sts	0x00C4, r24	; 0x8000c4 <__TEXT_REGION_LENGTH__+0x7e00c4>
     498:	da 01       	movw	r26, r20
     49a:	c9 01       	movw	r24, r18
     49c:	01 97       	sbiw	r24, 0x01	; 1
     49e:	a1 09       	sbc	r26, r1
     4a0:	b1 09       	sbc	r27, r1
     4a2:	89 2f       	mov	r24, r25
     4a4:	9a 2f       	mov	r25, r26
     4a6:	ab 2f       	mov	r26, r27
     4a8:	bb 27       	eor	r27, r27
     4aa:	80 93 c5 00 	sts	0x00C5, r24	; 0x8000c5 <__TEXT_REGION_LENGTH__+0x7e00c5>
     4ae:	08 95       	ret

000004b0 <hal_USART_putc>:

void hal_USART_putc(const char send)
{
	// Do nothing for a bit if there is already
	// data waiting in the hardware to be sent
	while ((UCSR0A & (1 << UDRE0)) == 0);
     4b0:	e0 ec       	ldi	r30, 0xC0	; 192
     4b2:	f0 e0       	ldi	r31, 0x00	; 0
     4b4:	90 81       	ld	r25, Z
     4b6:	95 ff       	sbrs	r25, 5
     4b8:	fd cf       	rjmp	.-6      	; 0x4b4 <hal_USART_putc+0x4>
	UDR0 = send;
     4ba:	80 93 c6 00 	sts	0x00C6, r24	; 0x8000c6 <__TEXT_REGION_LENGTH__+0x7e00c6>
     4be:	08 95       	ret

000004c0 <hal_USART_puts>:
}

void hal_USART_puts(const char *send)
{
     4c0:	cf 93       	push	r28
     4c2:	df 93       	push	r29
     4c4:	ec 01       	movw	r28, r24
	// Cycle through each character individually
	while (*send != '\0') 
     4c6:	88 81       	ld	r24, Y
     4c8:	88 23       	and	r24, r24
     4ca:	31 f0       	breq	.+12     	; 0x4d8 <hal_USART_puts+0x18>
     4cc:	21 96       	adiw	r28, 0x01	; 1
	{
		hal_USART_putc(*send++);
     4ce:	0e 94 58 02 	call	0x4b0	; 0x4b0 <hal_USART_putc>
}

void hal_USART_puts(const char *send)
{
	// Cycle through each character individually
	while (*send != '\0') 
     4d2:	89 91       	ld	r24, Y+
     4d4:	81 11       	cpse	r24, r1
     4d6:	fb cf       	rjmp	.-10     	; 0x4ce <hal_USART_puts+0xe>
	{
		hal_USART_putc(*send++);
	}
}
     4d8:	df 91       	pop	r29
     4da:	cf 91       	pop	r28
     4dc:	08 95       	ret

000004de <__vector_18>:

//////////////////////////////////////////////////////////////////////////

ISR (USART_RX_vect)
{
     4de:	1f 92       	push	r1
     4e0:	0f 92       	push	r0
     4e2:	0f b6       	in	r0, 0x3f	; 63
     4e4:	0f 92       	push	r0
     4e6:	11 24       	eor	r1, r1
     4e8:	2f 93       	push	r18
     4ea:	3f 93       	push	r19
     4ec:	4f 93       	push	r20
     4ee:	5f 93       	push	r21
     4f0:	6f 93       	push	r22
     4f2:	7f 93       	push	r23
     4f4:	8f 93       	push	r24
     4f6:	9f 93       	push	r25
     4f8:	af 93       	push	r26
     4fa:	bf 93       	push	r27
     4fc:	ef 93       	push	r30
     4fe:	ff 93       	push	r31
	rxCallback();
     500:	e0 91 0c 01 	lds	r30, 0x010C	; 0x80010c <rxCallback>
     504:	f0 91 0d 01 	lds	r31, 0x010D	; 0x80010d <rxCallback+0x1>
     508:	09 95       	icall
}
     50a:	ff 91       	pop	r31
     50c:	ef 91       	pop	r30
     50e:	bf 91       	pop	r27
     510:	af 91       	pop	r26
     512:	9f 91       	pop	r25
     514:	8f 91       	pop	r24
     516:	7f 91       	pop	r23
     518:	6f 91       	pop	r22
     51a:	5f 91       	pop	r21
     51c:	4f 91       	pop	r20
     51e:	3f 91       	pop	r19
     520:	2f 91       	pop	r18
     522:	0f 90       	pop	r0
     524:	0f be       	out	0x3f, r0	; 63
     526:	0f 90       	pop	r0
     528:	1f 90       	pop	r1
     52a:	18 95       	reti

0000052c <__vector_19>:

ISR(USART_UDRE_vect)
{
     52c:	1f 92       	push	r1
     52e:	0f 92       	push	r0
     530:	0f b6       	in	r0, 0x3f	; 63
     532:	0f 92       	push	r0
     534:	11 24       	eor	r1, r1
     536:	2f 93       	push	r18
     538:	3f 93       	push	r19
     53a:	4f 93       	push	r20
     53c:	5f 93       	push	r21
     53e:	6f 93       	push	r22
     540:	7f 93       	push	r23
     542:	8f 93       	push	r24
     544:	9f 93       	push	r25
     546:	af 93       	push	r26
     548:	bf 93       	push	r27
     54a:	ef 93       	push	r30
     54c:	ff 93       	push	r31
	dataRegEmptyCallback();
     54e:	e0 91 0a 01 	lds	r30, 0x010A	; 0x80010a <dataRegEmptyCallback>
     552:	f0 91 0b 01 	lds	r31, 0x010B	; 0x80010b <dataRegEmptyCallback+0x1>
     556:	09 95       	icall
}
     558:	ff 91       	pop	r31
     55a:	ef 91       	pop	r30
     55c:	bf 91       	pop	r27
     55e:	af 91       	pop	r26
     560:	9f 91       	pop	r25
     562:	8f 91       	pop	r24
     564:	7f 91       	pop	r23
     566:	6f 91       	pop	r22
     568:	5f 91       	pop	r21
     56a:	4f 91       	pop	r20
     56c:	3f 91       	pop	r19
     56e:	2f 91       	pop	r18
     570:	0f 90       	pop	r0
     572:	0f be       	out	0x3f, r0	; 63
     574:	0f 90       	pop	r0
     576:	1f 90       	pop	r1
     578:	18 95       	reti

0000057a <__vector_20>:

ISR(USART_TX_vect)
{
     57a:	1f 92       	push	r1
     57c:	0f 92       	push	r0
     57e:	0f b6       	in	r0, 0x3f	; 63
     580:	0f 92       	push	r0
     582:	11 24       	eor	r1, r1
     584:	2f 93       	push	r18
     586:	3f 93       	push	r19
     588:	4f 93       	push	r20
     58a:	5f 93       	push	r21
     58c:	6f 93       	push	r22
     58e:	7f 93       	push	r23
     590:	8f 93       	push	r24
     592:	9f 93       	push	r25
     594:	af 93       	push	r26
     596:	bf 93       	push	r27
     598:	ef 93       	push	r30
     59a:	ff 93       	push	r31
	txCallback();
     59c:	e0 91 08 01 	lds	r30, 0x0108	; 0x800108 <txCallback>
     5a0:	f0 91 09 01 	lds	r31, 0x0109	; 0x800109 <txCallback+0x1>
     5a4:	09 95       	icall
     5a6:	ff 91       	pop	r31
     5a8:	ef 91       	pop	r30
     5aa:	bf 91       	pop	r27
     5ac:	af 91       	pop	r26
     5ae:	9f 91       	pop	r25
     5b0:	8f 91       	pop	r24
     5b2:	7f 91       	pop	r23
     5b4:	6f 91       	pop	r22
     5b6:	5f 91       	pop	r21
     5b8:	4f 91       	pop	r20
     5ba:	3f 91       	pop	r19
     5bc:	2f 91       	pop	r18
     5be:	0f 90       	pop	r0
     5c0:	0f be       	out	0x3f, r0	; 63
     5c2:	0f 90       	pop	r0
     5c4:	1f 90       	pop	r1
     5c6:	18 95       	reti

000005c8 <chipSelect>:
	hal_timer0_setCompareValueA(64);
	hal_timer0_setCompareValueB(128);
	hal_timer0_setOutputA(t0_outA_TOGGLE_ON_COMPARE);
	hal_timer0_setOutputB(t0_outB_TOGGLE_ON_COMPARE);
	hal_timer0_setMode(t0_mode_NORMAL);
	hal_timer0_setClockSource(t0_clk_CLK_DIV_8);
     5c8:	28 98       	cbi	0x05, 0	; 5
     5ca:	08 95       	ret

000005cc <chipUnselect>:
     5cc:	28 9a       	sbi	0x05, 0	; 5
     5ce:	08 95       	ret

000005d0 <delay_chargetime>:
     5d0:	8f e3       	ldi	r24, 0x3F	; 63
     5d2:	9f e1       	ldi	r25, 0x1F	; 31
     5d4:	01 97       	sbiw	r24, 0x01	; 1
     5d6:	f1 f7       	brne	.-4      	; 0x5d4 <delay_chargetime+0x4>
     5d8:	00 c0       	rjmp	.+0      	; 0x5da <delay_chargetime+0xa>
     5da:	00 00       	nop
     5dc:	08 95       	ret

000005de <delay_conversiontime>:
     5de:	2f e7       	ldi	r18, 0x7F	; 127
     5e0:	83 e1       	ldi	r24, 0x13	; 19
     5e2:	93 e0       	ldi	r25, 0x03	; 3
     5e4:	21 50       	subi	r18, 0x01	; 1
     5e6:	80 40       	sbci	r24, 0x00	; 0
     5e8:	90 40       	sbci	r25, 0x00	; 0
     5ea:	e1 f7       	brne	.-8      	; 0x5e4 <delay_conversiontime+0x6>
     5ec:	00 c0       	rjmp	.+0      	; 0x5ee <delay_conversiontime+0x10>
     5ee:	00 00       	nop
     5f0:	08 95       	ret

000005f2 <usartSettup>:
     5f2:	f8 94       	cli
     5f4:	0e 94 12 02 	call	0x424	; 0x424 <hal_USART_enableModule>
     5f8:	0e 94 18 02 	call	0x430	; 0x430 <hal_USART_TxEnable>
     5fc:	83 e0       	ldi	r24, 0x03	; 3
     5fe:	0e 94 1e 02 	call	0x43c	; 0x43c <hal_USART_setCharSize>
     602:	60 e8       	ldi	r22, 0x80	; 128
     604:	75 e2       	ldi	r23, 0x25	; 37
     606:	80 e0       	ldi	r24, 0x00	; 0
     608:	90 e0       	ldi	r25, 0x00	; 0
     60a:	0e 94 2e 02 	call	0x45c	; 0x45c <hal_USART_setBaudRate>
     60e:	78 94       	sei
     610:	08 95       	ret

00000612 <chipSelect_setup>:
     612:	20 9a       	sbi	0x04, 0	; 4
     614:	28 9a       	sbi	0x05, 0	; 5
     616:	08 95       	ret

00000618 <spi_settup>:
     618:	f8 94       	cli
     61a:	0e 94 d5 00 	call	0x1aa	; 0x1aa <hal_SPI_enableModule>
     61e:	0e 94 2d 01 	call	0x25a	; 0x25a <hal_SPI_dissableInterrupt>
     622:	81 e0       	ldi	r24, 0x01	; 1
     624:	0e 94 ea 00 	call	0x1d4	; 0x1d4 <hal_SPI_setMode>
     628:	83 e0       	ldi	r24, 0x03	; 3
     62a:	0e 94 19 01 	call	0x232	; 0x232 <hal_SPI_setClockRate>
     62e:	80 e0       	ldi	r24, 0x00	; 0
     630:	0e 94 df 00 	call	0x1be	; 0x1be <hal_SPI_dataDirectionOrder>
     634:	80 e0       	ldi	r24, 0x00	; 0
     636:	0e 94 03 01 	call	0x206	; 0x206 <hal_SPI_setClockPolarity>
     63a:	81 e0       	ldi	r24, 0x01	; 1
     63c:	0e 94 0e 01 	call	0x21c	; 0x21c <hal_SPI_setClockPhase>
     640:	0e 94 db 00 	call	0x1b6	; 0x1b6 <hal_SPI_enable_TRX>
     644:	78 94       	sei
     646:	08 95       	ret

00000648 <timer0_Fast_PWM>:
     648:	0e 94 59 01 	call	0x2b2	; 0x2b2 <hal_timer0_enableModule>
     64c:	80 e8       	ldi	r24, 0x80	; 128
     64e:	0e 94 6f 01 	call	0x2de	; 0x2de <hal_timer0_setCompareValueA>
     652:	80 e4       	ldi	r24, 0x40	; 64
     654:	0e 94 71 01 	call	0x2e2	; 0x2e2 <hal_timer0_setCompareValueB>
     658:	80 e2       	ldi	r24, 0x20	; 32
     65a:	0e 94 7c 01 	call	0x2f8	; 0x2f8 <hal_timer0_setOutputB>
     65e:	80 e8       	ldi	r24, 0x80	; 128
     660:	0e 94 73 01 	call	0x2e6	; 0x2e6 <hal_timer0_setOutputA>
     664:	83 e0       	ldi	r24, 0x03	; 3
     666:	0e 94 5f 01 	call	0x2be	; 0x2be <hal_timer0_setMode>
     66a:	84 e0       	ldi	r24, 0x04	; 4
     66c:	0e 94 85 01 	call	0x30a	; 0x30a <hal_timer0_setClockSource>
     670:	08 95       	ret

00000672 <main>:
	prject settup for sprintf with uint16_t values
	https://startingelectronics.org/articles/atmel-AVR-8-bit/print-float-atmel-studio-7/
*/

int main(void)
{
     672:	cf 93       	push	r28
     674:	df 93       	push	r29
     676:	cd b7       	in	r28, 0x3d	; 61
     678:	de b7       	in	r29, 0x3e	; 62
     67a:	c1 57       	subi	r28, 0x71	; 113
     67c:	d1 09       	sbc	r29, r1
     67e:	0f b6       	in	r0, 0x3f	; 63
     680:	f8 94       	cli
     682:	de bf       	out	0x3e, r29	; 62
     684:	0f be       	out	0x3f, r0	; 63
     686:	cd bf       	out	0x3d, r28	; 61
	int8_t thfault = 0;
	float tempK = 0;
	float tempC = 0;
	char buff[100];
	
	chipSelect_setup();
     688:	0e 94 09 03 	call	0x612	; 0x612 <chipSelect_setup>
	
	// max31865 lib settup
	max31865_register_spi_trx(hal_SPI_trx);
     68c:	87 e2       	ldi	r24, 0x27	; 39
     68e:	91 e0       	ldi	r25, 0x01	; 1
     690:	0e 94 ad 04 	call	0x95a	; 0x95a <max31865_register_spi_trx>
	max31865_register_chargetime_delay(delay_chargetime);
     694:	88 ee       	ldi	r24, 0xE8	; 232
     696:	92 e0       	ldi	r25, 0x02	; 2
     698:	0e 94 b2 04 	call	0x964	; 0x964 <max31865_register_chargetime_delay>
	max31865_register_conversiontime_delay(delay_conversiontime);
     69c:	8f ee       	ldi	r24, 0xEF	; 239
     69e:	92 e0       	ldi	r25, 0x02	; 2
     6a0:	0e 94 b7 04 	call	0x96e	; 0x96e <max31865_register_conversiontime_delay>
	
	
	
	
	// device setup
	max.rtd = 100;
     6a4:	84 e6       	ldi	r24, 0x64	; 100
     6a6:	90 e0       	ldi	r25, 0x00	; 0
     6a8:	9e 83       	std	Y+6, r25	; 0x06
     6aa:	8d 83       	std	Y+5, r24	; 0x05
	max.rref = 430;
     6ac:	8e ea       	ldi	r24, 0xAE	; 174
     6ae:	91 e0       	ldi	r25, 0x01	; 1
     6b0:	98 87       	std	Y+8, r25	; 0x08
     6b2:	8f 83       	std	Y+7, r24	; 0x07
	max.lowFaultThreshold = 0;
     6b4:	1a 86       	std	Y+10, r1	; 0x0a
     6b6:	19 86       	std	Y+9, r1	; 0x09
	max.highFaultThreshold = 0xFFFF;
     6b8:	8f ef       	ldi	r24, 0xFF	; 255
     6ba:	9f ef       	ldi	r25, 0xFF	; 255
     6bc:	9c 87       	std	Y+12, r25	; 0x0c
     6be:	8b 87       	std	Y+11, r24	; 0x0b
	// 3-Wire + 50Hz filter
	max.configReg = 0x11;
     6c0:	81 e1       	ldi	r24, 0x11	; 17
     6c2:	8d 87       	std	Y+13, r24	; 0x0d
	max.selectChip = chipSelect;
     6c4:	84 ee       	ldi	r24, 0xE4	; 228
     6c6:	92 e0       	ldi	r25, 0x02	; 2
     6c8:	9a 83       	std	Y+2, r25	; 0x02
     6ca:	89 83       	std	Y+1, r24	; 0x01
	max.unselectChip = chipUnselect;
     6cc:	86 ee       	ldi	r24, 0xE6	; 230
     6ce:	92 e0       	ldi	r25, 0x02	; 2
     6d0:	9c 83       	std	Y+4, r25	; 0x04
     6d2:	8b 83       	std	Y+3, r24	; 0x03
	
	
	usartSettup();
     6d4:	0e 94 f9 02 	call	0x5f2	; 0x5f2 <usartSettup>
	
	
	//timer0_Normal_PWM();
	timer0_Fast_PWM();
     6d8:	0e 94 24 03 	call	0x648	; 0x648 <timer0_Fast_PWM>
	/*
		for putty: 
		https://superuser.com/questions/555554/putty-clear-scrollback-from-commandline
	*/
	
	sprintf(buff,"\033[2J\r");
     6dc:	86 e0       	ldi	r24, 0x06	; 6
     6de:	ee e0       	ldi	r30, 0x0E	; 14
     6e0:	f1 e0       	ldi	r31, 0x01	; 1
     6e2:	de 01       	movw	r26, r28
     6e4:	1e 96       	adiw	r26, 0x0e	; 14
     6e6:	01 90       	ld	r0, Z+
     6e8:	0d 92       	st	X+, r0
     6ea:	8a 95       	dec	r24
     6ec:	e1 f7       	brne	.-8      	; 0x6e6 <main+0x74>
	hal_USART_puts(buff);
     6ee:	ce 01       	movw	r24, r28
     6f0:	0e 96       	adiw	r24, 0x0e	; 14
     6f2:	0e 94 60 02 	call	0x4c0	; 0x4c0 <hal_USART_puts>
	
	sprintf(buff,"Program: max31865_lib_settup\n\r");
     6f6:	8f e1       	ldi	r24, 0x1F	; 31
     6f8:	e4 e1       	ldi	r30, 0x14	; 20
     6fa:	f1 e0       	ldi	r31, 0x01	; 1
     6fc:	de 01       	movw	r26, r28
     6fe:	1e 96       	adiw	r26, 0x0e	; 14
     700:	01 90       	ld	r0, Z+
     702:	0d 92       	st	X+, r0
     704:	8a 95       	dec	r24
     706:	e1 f7       	brne	.-8      	; 0x700 <main+0x8e>
	hal_USART_puts(buff);
     708:	ce 01       	movw	r24, r28
     70a:	0e 96       	adiw	r24, 0x0e	; 14
     70c:	0e 94 60 02 	call	0x4c0	; 0x4c0 <hal_USART_puts>
	
	//max31865_SPIsetup();
	spi_settup();
     710:	0e 94 0c 03 	call	0x618	; 0x618 <spi_settup>
	
	max31865_configDevice(max);	
     714:	c9 80       	ldd	r12, Y+1	; 0x01
     716:	da 80       	ldd	r13, Y+2	; 0x02
     718:	eb 80       	ldd	r14, Y+3	; 0x03
     71a:	fc 80       	ldd	r15, Y+4	; 0x04
     71c:	0d 81       	ldd	r16, Y+5	; 0x05
     71e:	1e 81       	ldd	r17, Y+6	; 0x06
     720:	2f 81       	ldd	r18, Y+7	; 0x07
     722:	38 85       	ldd	r19, Y+8	; 0x08
     724:	49 85       	ldd	r20, Y+9	; 0x09
     726:	5a 85       	ldd	r21, Y+10	; 0x0a
     728:	6b 85       	ldd	r22, Y+11	; 0x0b
     72a:	7c 85       	ldd	r23, Y+12	; 0x0c
     72c:	8d 85       	ldd	r24, Y+13	; 0x0d
     72e:	0e 94 bc 04 	call	0x978	; 0x978 <max31865_configDevice>
		hal_USART_puts(buff);
		*/
		
		
		adcbuff = max31865_readADC(max);
		sprintf(buff,"\n\r$%d;",adcbuff);
     732:	0f 2e       	mov	r0, r31
     734:	f3 e3       	ldi	r31, 0x33	; 51
     736:	8f 2e       	mov	r8, r31
     738:	f1 e0       	ldi	r31, 0x01	; 1
     73a:	9f 2e       	mov	r9, r31
     73c:	f0 2d       	mov	r31, r0
     73e:	5e 01       	movw	r10, r28
     740:	2e e0       	ldi	r18, 0x0E	; 14
     742:	a2 0e       	add	r10, r18
     744:	b1 1c       	adc	r11, r1
		sprintf(buff,"\n\r-----------------------------------");
		hal_USART_puts(buff);
		*/
		
		
		adcbuff = max31865_readADC(max);
     746:	c9 80       	ldd	r12, Y+1	; 0x01
     748:	da 80       	ldd	r13, Y+2	; 0x02
     74a:	eb 80       	ldd	r14, Y+3	; 0x03
     74c:	fc 80       	ldd	r15, Y+4	; 0x04
     74e:	0d 81       	ldd	r16, Y+5	; 0x05
     750:	1e 81       	ldd	r17, Y+6	; 0x06
     752:	2f 81       	ldd	r18, Y+7	; 0x07
     754:	38 85       	ldd	r19, Y+8	; 0x08
     756:	49 85       	ldd	r20, Y+9	; 0x09
     758:	5a 85       	ldd	r21, Y+10	; 0x0a
     75a:	6b 85       	ldd	r22, Y+11	; 0x0b
     75c:	7c 85       	ldd	r23, Y+12	; 0x0c
     75e:	8d 85       	ldd	r24, Y+13	; 0x0d
     760:	0e 94 21 05 	call	0xa42	; 0xa42 <max31865_readADC>
		sprintf(buff,"\n\r$%d;",adcbuff);
     764:	9f 93       	push	r25
     766:	8f 93       	push	r24
     768:	9f 92       	push	r9
     76a:	8f 92       	push	r8
     76c:	bf 92       	push	r11
     76e:	af 92       	push	r10
     770:	0e 94 b8 0a 	call	0x1570	; 0x1570 <sprintf>
		hal_USART_puts(buff);
     774:	c5 01       	movw	r24, r10
     776:	0e 94 60 02 	call	0x4c0	; 0x4c0 <hal_USART_puts>
	#else
		//round up by default
		__ticks_dc = (uint32_t)(ceil(fabs(__tmp)));
	#endif

	__builtin_avr_delay_cycles(__ticks_dc);
     77a:	8f ef       	ldi	r24, 0xFF	; 255
     77c:	99 e6       	ldi	r25, 0x69	; 105
     77e:	28 e1       	ldi	r18, 0x18	; 24
     780:	81 50       	subi	r24, 0x01	; 1
     782:	90 40       	sbci	r25, 0x00	; 0
     784:	20 40       	sbci	r18, 0x00	; 0
     786:	e1 f7       	brne	.-8      	; 0x780 <main+0x10e>
     788:	00 c0       	rjmp	.+0      	; 0x78a <main+0x118>
     78a:	00 00       	nop
     78c:	0f 90       	pop	r0
     78e:	0f 90       	pop	r0
     790:	0f 90       	pop	r0
     792:	0f 90       	pop	r0
     794:	0f 90       	pop	r0
     796:	0f 90       	pop	r0
     798:	d6 cf       	rjmp	.-84     	; 0x746 <main+0xd4>

0000079a <readNReg>:
     79a:	8f 92       	push	r8
     79c:	9f 92       	push	r9
     79e:	af 92       	push	r10
     7a0:	cf 92       	push	r12
     7a2:	df 92       	push	r13
     7a4:	ef 92       	push	r14
     7a6:	ff 92       	push	r15
     7a8:	0f 93       	push	r16
     7aa:	1f 93       	push	r17
     7ac:	cf 93       	push	r28
     7ae:	df 93       	push	r29
     7b0:	cd b7       	in	r28, 0x3d	; 61
     7b2:	de b7       	in	r29, 0x3e	; 62
     7b4:	2d 97       	sbiw	r28, 0x0d	; 13
     7b6:	0f b6       	in	r0, 0x3f	; 63
     7b8:	f8 94       	cli
     7ba:	de bf       	out	0x3e, r29	; 62
     7bc:	0f be       	out	0x3f, r0	; 63
     7be:	cd bf       	out	0x3d, r28	; 61
     7c0:	c9 82       	std	Y+1, r12	; 0x01
     7c2:	da 82       	std	Y+2, r13	; 0x02
     7c4:	eb 82       	std	Y+3, r14	; 0x03
     7c6:	fc 82       	std	Y+4, r15	; 0x04
     7c8:	db 8c       	ldd	r13, Y+27	; 0x1b
     7ca:	dd 20       	and	r13, r13
     7cc:	29 f1       	breq	.+74     	; 0x818 <readNReg+0x7e>
     7ce:	74 01       	movw	r14, r8
     7d0:	e9 81       	ldd	r30, Y+1	; 0x01
     7d2:	fa 81       	ldd	r31, Y+2	; 0x02
     7d4:	09 95       	icall
     7d6:	e0 91 41 01 	lds	r30, 0x0141	; 0x800141 <spi_trx>
     7da:	f0 91 42 01 	lds	r31, 0x0142	; 0x800142 <spi_trx+0x1>
     7de:	8a 2d       	mov	r24, r10
     7e0:	90 e0       	ldi	r25, 0x00	; 0
     7e2:	09 95       	icall
     7e4:	84 01       	movw	r16, r8
     7e6:	99 24       	eor	r9, r9
     7e8:	9a 94       	dec	r9
     7ea:	9d 0c       	add	r9, r13
     7ec:	89 2d       	mov	r24, r9
     7ee:	90 e0       	ldi	r25, 0x00	; 0
     7f0:	01 96       	adiw	r24, 0x01	; 1
     7f2:	47 01       	movw	r8, r14
     7f4:	88 0e       	add	r8, r24
     7f6:	99 1e       	adc	r9, r25
     7f8:	e0 91 41 01 	lds	r30, 0x0141	; 0x800141 <spi_trx>
     7fc:	f0 91 42 01 	lds	r31, 0x0142	; 0x800142 <spi_trx+0x1>
     800:	8f ef       	ldi	r24, 0xFF	; 255
     802:	90 e0       	ldi	r25, 0x00	; 0
     804:	09 95       	icall
     806:	f8 01       	movw	r30, r16
     808:	81 93       	st	Z+, r24
     80a:	8f 01       	movw	r16, r30
     80c:	e8 15       	cp	r30, r8
     80e:	f9 05       	cpc	r31, r9
     810:	99 f7       	brne	.-26     	; 0x7f8 <readNReg+0x5e>
     812:	eb 81       	ldd	r30, Y+3	; 0x03
     814:	fc 81       	ldd	r31, Y+4	; 0x04
     816:	09 95       	icall
     818:	2d 96       	adiw	r28, 0x0d	; 13
     81a:	0f b6       	in	r0, 0x3f	; 63
     81c:	f8 94       	cli
     81e:	de bf       	out	0x3e, r29	; 62
     820:	0f be       	out	0x3f, r0	; 63
     822:	cd bf       	out	0x3d, r28	; 61
     824:	df 91       	pop	r29
     826:	cf 91       	pop	r28
     828:	1f 91       	pop	r17
     82a:	0f 91       	pop	r16
     82c:	ff 90       	pop	r15
     82e:	ef 90       	pop	r14
     830:	df 90       	pop	r13
     832:	cf 90       	pop	r12
     834:	af 90       	pop	r10
     836:	9f 90       	pop	r9
     838:	8f 90       	pop	r8
     83a:	08 95       	ret

0000083c <writeNReg>:
     83c:	8f 92       	push	r8
     83e:	9f 92       	push	r9
     840:	af 92       	push	r10
     842:	cf 92       	push	r12
     844:	df 92       	push	r13
     846:	ef 92       	push	r14
     848:	ff 92       	push	r15
     84a:	0f 93       	push	r16
     84c:	1f 93       	push	r17
     84e:	cf 93       	push	r28
     850:	df 93       	push	r29
     852:	cd b7       	in	r28, 0x3d	; 61
     854:	de b7       	in	r29, 0x3e	; 62
     856:	2d 97       	sbiw	r28, 0x0d	; 13
     858:	0f b6       	in	r0, 0x3f	; 63
     85a:	f8 94       	cli
     85c:	de bf       	out	0x3e, r29	; 62
     85e:	0f be       	out	0x3f, r0	; 63
     860:	cd bf       	out	0x3d, r28	; 61
     862:	c9 82       	std	Y+1, r12	; 0x01
     864:	da 82       	std	Y+2, r13	; 0x02
     866:	eb 82       	std	Y+3, r14	; 0x03
     868:	fc 82       	std	Y+4, r15	; 0x04
     86a:	0b 8d       	ldd	r16, Y+27	; 0x1b
     86c:	e9 81       	ldd	r30, Y+1	; 0x01
     86e:	fa 81       	ldd	r31, Y+2	; 0x02
     870:	09 95       	icall
     872:	e0 91 41 01 	lds	r30, 0x0141	; 0x800141 <spi_trx>
     876:	f0 91 42 01 	lds	r31, 0x0142	; 0x800142 <spi_trx+0x1>
     87a:	8a 2d       	mov	r24, r10
     87c:	90 e0       	ldi	r25, 0x00	; 0
     87e:	09 95       	icall
     880:	80 e0       	ldi	r24, 0x00	; 0
     882:	11 e0       	ldi	r17, 0x01	; 1
     884:	18 0f       	add	r17, r24
     886:	f4 01       	movw	r30, r8
     888:	e8 0f       	add	r30, r24
     88a:	f1 1d       	adc	r31, r1
     88c:	80 81       	ld	r24, Z
     88e:	e0 91 41 01 	lds	r30, 0x0141	; 0x800141 <spi_trx>
     892:	f0 91 42 01 	lds	r31, 0x0142	; 0x800142 <spi_trx+0x1>
     896:	90 e0       	ldi	r25, 0x00	; 0
     898:	09 95       	icall
     89a:	81 2f       	mov	r24, r17
     89c:	01 13       	cpse	r16, r17
     89e:	f1 cf       	rjmp	.-30     	; 0x882 <writeNReg+0x46>
     8a0:	eb 81       	ldd	r30, Y+3	; 0x03
     8a2:	fc 81       	ldd	r31, Y+4	; 0x04
     8a4:	09 95       	icall
     8a6:	2d 96       	adiw	r28, 0x0d	; 13
     8a8:	0f b6       	in	r0, 0x3f	; 63
     8aa:	f8 94       	cli
     8ac:	de bf       	out	0x3e, r29	; 62
     8ae:	0f be       	out	0x3f, r0	; 63
     8b0:	cd bf       	out	0x3d, r28	; 61
     8b2:	df 91       	pop	r29
     8b4:	cf 91       	pop	r28
     8b6:	1f 91       	pop	r17
     8b8:	0f 91       	pop	r16
     8ba:	ff 90       	pop	r15
     8bc:	ef 90       	pop	r14
     8be:	df 90       	pop	r13
     8c0:	cf 90       	pop	r12
     8c2:	af 90       	pop	r10
     8c4:	9f 90       	pop	r9
     8c6:	8f 90       	pop	r8
     8c8:	08 95       	ret

000008ca <writeReg>:
     8ca:	8f 92       	push	r8
     8cc:	9f 92       	push	r9
     8ce:	af 92       	push	r10
     8d0:	cf 92       	push	r12
     8d2:	df 92       	push	r13
     8d4:	ef 92       	push	r14
     8d6:	ff 92       	push	r15
     8d8:	0f 93       	push	r16
     8da:	1f 93       	push	r17
     8dc:	cf 93       	push	r28
     8de:	df 93       	push	r29
     8e0:	cd b7       	in	r28, 0x3d	; 61
     8e2:	de b7       	in	r29, 0x3e	; 62
     8e4:	2e 97       	sbiw	r28, 0x0e	; 14
     8e6:	0f b6       	in	r0, 0x3f	; 63
     8e8:	f8 94       	cli
     8ea:	de bf       	out	0x3e, r29	; 62
     8ec:	0f be       	out	0x3f, r0	; 63
     8ee:	cd bf       	out	0x3d, r28	; 61
     8f0:	c9 82       	std	Y+1, r12	; 0x01
     8f2:	da 82       	std	Y+2, r13	; 0x02
     8f4:	eb 82       	std	Y+3, r14	; 0x03
     8f6:	fc 82       	std	Y+4, r15	; 0x04
     8f8:	0d 83       	std	Y+5, r16	; 0x05
     8fa:	1e 83       	std	Y+6, r17	; 0x06
     8fc:	2f 83       	std	Y+7, r18	; 0x07
     8fe:	38 87       	std	Y+8, r19	; 0x08
     900:	49 87       	std	Y+9, r20	; 0x09
     902:	5a 87       	std	Y+10, r21	; 0x0a
     904:	6b 87       	std	Y+11, r22	; 0x0b
     906:	7c 87       	std	Y+12, r23	; 0x0c
     908:	8d 87       	std	Y+13, r24	; 0x0d
     90a:	8e 86       	std	Y+14, r8	; 0x0e
     90c:	81 e0       	ldi	r24, 0x01	; 1
     90e:	8f 93       	push	r24
     910:	ce 01       	movw	r24, r28
     912:	0e 96       	adiw	r24, 0x0e	; 14
     914:	4c 01       	movw	r8, r24
     916:	c9 80       	ldd	r12, Y+1	; 0x01
     918:	da 80       	ldd	r13, Y+2	; 0x02
     91a:	eb 80       	ldd	r14, Y+3	; 0x03
     91c:	fc 80       	ldd	r15, Y+4	; 0x04
     91e:	0d 81       	ldd	r16, Y+5	; 0x05
     920:	1e 81       	ldd	r17, Y+6	; 0x06
     922:	2f 81       	ldd	r18, Y+7	; 0x07
     924:	38 85       	ldd	r19, Y+8	; 0x08
     926:	49 85       	ldd	r20, Y+9	; 0x09
     928:	5a 85       	ldd	r21, Y+10	; 0x0a
     92a:	6b 85       	ldd	r22, Y+11	; 0x0b
     92c:	7c 85       	ldd	r23, Y+12	; 0x0c
     92e:	8d 85       	ldd	r24, Y+13	; 0x0d
     930:	0e 94 1e 04 	call	0x83c	; 0x83c <writeNReg>
     934:	0f 90       	pop	r0
     936:	2e 96       	adiw	r28, 0x0e	; 14
     938:	0f b6       	in	r0, 0x3f	; 63
     93a:	f8 94       	cli
     93c:	de bf       	out	0x3e, r29	; 62
     93e:	0f be       	out	0x3f, r0	; 63
     940:	cd bf       	out	0x3d, r28	; 61
     942:	df 91       	pop	r29
     944:	cf 91       	pop	r28
     946:	1f 91       	pop	r17
     948:	0f 91       	pop	r16
     94a:	ff 90       	pop	r15
     94c:	ef 90       	pop	r14
     94e:	df 90       	pop	r13
     950:	cf 90       	pop	r12
     952:	af 90       	pop	r10
     954:	9f 90       	pop	r9
     956:	8f 90       	pop	r8
     958:	08 95       	ret

0000095a <max31865_register_spi_trx>:
     95a:	90 93 42 01 	sts	0x0142, r25	; 0x800142 <spi_trx+0x1>
     95e:	80 93 41 01 	sts	0x0141, r24	; 0x800141 <spi_trx>
     962:	08 95       	ret

00000964 <max31865_register_chargetime_delay>:
     964:	90 93 40 01 	sts	0x0140, r25	; 0x800140 <chargetime+0x1>
     968:	80 93 3f 01 	sts	0x013F, r24	; 0x80013f <chargetime>
     96c:	08 95       	ret

0000096e <max31865_register_conversiontime_delay>:
     96e:	90 93 3e 01 	sts	0x013E, r25	; 0x80013e <conversiontime+0x1>
     972:	80 93 3d 01 	sts	0x013D, r24	; 0x80013d <conversiontime>
     976:	08 95       	ret

00000978 <max31865_configDevice>:
     978:	3f 92       	push	r3
     97a:	4f 92       	push	r4
     97c:	5f 92       	push	r5
     97e:	6f 92       	push	r6
     980:	7f 92       	push	r7
     982:	8f 92       	push	r8
     984:	9f 92       	push	r9
     986:	af 92       	push	r10
     988:	bf 92       	push	r11
     98a:	cf 92       	push	r12
     98c:	df 92       	push	r13
     98e:	ef 92       	push	r14
     990:	ff 92       	push	r15
     992:	0f 93       	push	r16
     994:	1f 93       	push	r17
     996:	cf 93       	push	r28
     998:	df 93       	push	r29
     99a:	cd b7       	in	r28, 0x3d	; 61
     99c:	de b7       	in	r29, 0x3e	; 62
     99e:	61 97       	sbiw	r28, 0x11	; 17
     9a0:	0f b6       	in	r0, 0x3f	; 63
     9a2:	f8 94       	cli
     9a4:	de bf       	out	0x3e, r29	; 62
     9a6:	0f be       	out	0x3f, r0	; 63
     9a8:	cd bf       	out	0x3d, r28	; 61
     9aa:	cd 82       	std	Y+5, r12	; 0x05
     9ac:	de 82       	std	Y+6, r13	; 0x06
     9ae:	ef 82       	std	Y+7, r14	; 0x07
     9b0:	f8 86       	std	Y+8, r15	; 0x08
     9b2:	09 87       	std	Y+9, r16	; 0x09
     9b4:	1a 87       	std	Y+10, r17	; 0x0a
     9b6:	2b 87       	std	Y+11, r18	; 0x0b
     9b8:	3c 87       	std	Y+12, r19	; 0x0c
     9ba:	b4 2e       	mov	r11, r20
     9bc:	4d 87       	std	Y+13, r20	; 0x0d
     9be:	95 2e       	mov	r9, r21
     9c0:	5e 87       	std	Y+14, r21	; 0x0e
     9c2:	76 2e       	mov	r7, r22
     9c4:	6f 87       	std	Y+15, r22	; 0x0f
     9c6:	67 2e       	mov	r6, r23
     9c8:	78 8b       	std	Y+16, r23	; 0x10
     9ca:	88 2e       	mov	r8, r24
     9cc:	89 8b       	std	Y+17, r24	; 0x11
     9ce:	68 94       	set
     9d0:	aa 24       	eor	r10, r10
     9d2:	a7 f8       	bld	r10, 7
     9d4:	0e 94 65 04 	call	0x8ca	; 0x8ca <writeReg>
     9d8:	69 82       	std	Y+1, r6	; 0x01
     9da:	7a 82       	std	Y+2, r7	; 0x02
     9dc:	9b 82       	std	Y+3, r9	; 0x03
     9de:	bc 82       	std	Y+4, r11	; 0x04
     9e0:	84 e0       	ldi	r24, 0x04	; 4
     9e2:	8f 93       	push	r24
     9e4:	ce 01       	movw	r24, r28
     9e6:	01 96       	adiw	r24, 0x01	; 1
     9e8:	4c 01       	movw	r8, r24
     9ea:	0f 2e       	mov	r0, r31
     9ec:	f3 e8       	ldi	r31, 0x83	; 131
     9ee:	af 2e       	mov	r10, r31
     9f0:	f0 2d       	mov	r31, r0
     9f2:	cd 80       	ldd	r12, Y+5	; 0x05
     9f4:	de 80       	ldd	r13, Y+6	; 0x06
     9f6:	ef 80       	ldd	r14, Y+7	; 0x07
     9f8:	f8 84       	ldd	r15, Y+8	; 0x08
     9fa:	09 85       	ldd	r16, Y+9	; 0x09
     9fc:	1a 85       	ldd	r17, Y+10	; 0x0a
     9fe:	2b 85       	ldd	r18, Y+11	; 0x0b
     a00:	3c 85       	ldd	r19, Y+12	; 0x0c
     a02:	4d 85       	ldd	r20, Y+13	; 0x0d
     a04:	5e 85       	ldd	r21, Y+14	; 0x0e
     a06:	6f 85       	ldd	r22, Y+15	; 0x0f
     a08:	78 89       	ldd	r23, Y+16	; 0x10
     a0a:	89 89       	ldd	r24, Y+17	; 0x11
     a0c:	0e 94 1e 04 	call	0x83c	; 0x83c <writeNReg>
     a10:	0f 90       	pop	r0
     a12:	61 96       	adiw	r28, 0x11	; 17
     a14:	0f b6       	in	r0, 0x3f	; 63
     a16:	f8 94       	cli
     a18:	de bf       	out	0x3e, r29	; 62
     a1a:	0f be       	out	0x3f, r0	; 63
     a1c:	cd bf       	out	0x3d, r28	; 61
     a1e:	df 91       	pop	r29
     a20:	cf 91       	pop	r28
     a22:	1f 91       	pop	r17
     a24:	0f 91       	pop	r16
     a26:	ff 90       	pop	r15
     a28:	ef 90       	pop	r14
     a2a:	df 90       	pop	r13
     a2c:	cf 90       	pop	r12
     a2e:	bf 90       	pop	r11
     a30:	af 90       	pop	r10
     a32:	9f 90       	pop	r9
     a34:	8f 90       	pop	r8
     a36:	7f 90       	pop	r7
     a38:	6f 90       	pop	r6
     a3a:	5f 90       	pop	r5
     a3c:	4f 90       	pop	r4
     a3e:	3f 90       	pop	r3
     a40:	08 95       	ret

00000a42 <max31865_readADC>:
     a42:	2f 92       	push	r2
     a44:	3f 92       	push	r3
     a46:	4f 92       	push	r4
     a48:	5f 92       	push	r5
     a4a:	6f 92       	push	r6
     a4c:	7f 92       	push	r7
     a4e:	8f 92       	push	r8
     a50:	9f 92       	push	r9
     a52:	af 92       	push	r10
     a54:	bf 92       	push	r11
     a56:	cf 92       	push	r12
     a58:	df 92       	push	r13
     a5a:	ef 92       	push	r14
     a5c:	ff 92       	push	r15
     a5e:	0f 93       	push	r16
     a60:	1f 93       	push	r17
     a62:	cf 93       	push	r28
     a64:	df 93       	push	r29
     a66:	cd b7       	in	r28, 0x3d	; 61
     a68:	de b7       	in	r29, 0x3e	; 62
     a6a:	2f 97       	sbiw	r28, 0x0f	; 15
     a6c:	0f b6       	in	r0, 0x3f	; 63
     a6e:	f8 94       	cli
     a70:	de bf       	out	0x3e, r29	; 62
     a72:	0f be       	out	0x3f, r0	; 63
     a74:	cd bf       	out	0x3d, r28	; 61
     a76:	cb 82       	std	Y+3, r12	; 0x03
     a78:	dc 82       	std	Y+4, r13	; 0x04
     a7a:	ed 82       	std	Y+5, r14	; 0x05
     a7c:	fe 82       	std	Y+6, r15	; 0x06
     a7e:	0f 83       	std	Y+7, r16	; 0x07
     a80:	18 87       	std	Y+8, r17	; 0x08
     a82:	29 87       	std	Y+9, r18	; 0x09
     a84:	3a 87       	std	Y+10, r19	; 0x0a
     a86:	4b 87       	std	Y+11, r20	; 0x0b
     a88:	5c 87       	std	Y+12, r21	; 0x0c
     a8a:	6d 87       	std	Y+13, r22	; 0x0d
     a8c:	7e 87       	std	Y+14, r23	; 0x0e
     a8e:	8f 87       	std	Y+15, r24	; 0x0f
     a90:	b8 2e       	mov	r11, r24
     a92:	80 68       	ori	r24, 0x80	; 128
     a94:	88 2e       	mov	r8, r24
     a96:	68 94       	set
     a98:	aa 24       	eor	r10, r10
     a9a:	a7 f8       	bld	r10, 7
     a9c:	8b 2d       	mov	r24, r11
     a9e:	0e 94 65 04 	call	0x8ca	; 0x8ca <writeReg>
     aa2:	e0 91 3f 01 	lds	r30, 0x013F	; 0x80013f <chargetime>
     aa6:	f0 91 40 01 	lds	r31, 0x0140	; 0x800140 <chargetime+0x1>
     aaa:	09 95       	icall
     aac:	9b 2d       	mov	r25, r11
     aae:	90 6a       	ori	r25, 0xA0	; 160
     ab0:	89 2e       	mov	r8, r25
     ab2:	cb 80       	ldd	r12, Y+3	; 0x03
     ab4:	dc 80       	ldd	r13, Y+4	; 0x04
     ab6:	ed 80       	ldd	r14, Y+5	; 0x05
     ab8:	fe 80       	ldd	r15, Y+6	; 0x06
     aba:	0f 81       	ldd	r16, Y+7	; 0x07
     abc:	18 85       	ldd	r17, Y+8	; 0x08
     abe:	29 85       	ldd	r18, Y+9	; 0x09
     ac0:	3a 85       	ldd	r19, Y+10	; 0x0a
     ac2:	4b 85       	ldd	r20, Y+11	; 0x0b
     ac4:	5c 85       	ldd	r21, Y+12	; 0x0c
     ac6:	6d 85       	ldd	r22, Y+13	; 0x0d
     ac8:	7e 85       	ldd	r23, Y+14	; 0x0e
     aca:	8f 85       	ldd	r24, Y+15	; 0x0f
     acc:	0e 94 65 04 	call	0x8ca	; 0x8ca <writeReg>
     ad0:	e0 91 3d 01 	lds	r30, 0x013D	; 0x80013d <conversiontime>
     ad4:	f0 91 3e 01 	lds	r31, 0x013E	; 0x80013e <conversiontime+0x1>
     ad8:	09 95       	icall
     ada:	82 e0       	ldi	r24, 0x02	; 2
     adc:	8f 93       	push	r24
     ade:	ce 01       	movw	r24, r28
     ae0:	01 96       	adiw	r24, 0x01	; 1
     ae2:	4c 01       	movw	r8, r24
     ae4:	aa 24       	eor	r10, r10
     ae6:	a3 94       	inc	r10
     ae8:	cb 80       	ldd	r12, Y+3	; 0x03
     aea:	dc 80       	ldd	r13, Y+4	; 0x04
     aec:	ed 80       	ldd	r14, Y+5	; 0x05
     aee:	fe 80       	ldd	r15, Y+6	; 0x06
     af0:	0f 81       	ldd	r16, Y+7	; 0x07
     af2:	18 85       	ldd	r17, Y+8	; 0x08
     af4:	29 85       	ldd	r18, Y+9	; 0x09
     af6:	3a 85       	ldd	r19, Y+10	; 0x0a
     af8:	4b 85       	ldd	r20, Y+11	; 0x0b
     afa:	5c 85       	ldd	r21, Y+12	; 0x0c
     afc:	6d 85       	ldd	r22, Y+13	; 0x0d
     afe:	7e 85       	ldd	r23, Y+14	; 0x0e
     b00:	8f 85       	ldd	r24, Y+15	; 0x0f
     b02:	0e 94 cd 03 	call	0x79a	; 0x79a <readNReg>
     b06:	8b 2c       	mov	r8, r11
     b08:	68 94       	set
     b0a:	aa 24       	eor	r10, r10
     b0c:	a7 f8       	bld	r10, 7
     b0e:	cb 80       	ldd	r12, Y+3	; 0x03
     b10:	dc 80       	ldd	r13, Y+4	; 0x04
     b12:	ed 80       	ldd	r14, Y+5	; 0x05
     b14:	fe 80       	ldd	r15, Y+6	; 0x06
     b16:	0f 81       	ldd	r16, Y+7	; 0x07
     b18:	18 85       	ldd	r17, Y+8	; 0x08
     b1a:	29 85       	ldd	r18, Y+9	; 0x09
     b1c:	3a 85       	ldd	r19, Y+10	; 0x0a
     b1e:	4b 85       	ldd	r20, Y+11	; 0x0b
     b20:	5c 85       	ldd	r21, Y+12	; 0x0c
     b22:	6d 85       	ldd	r22, Y+13	; 0x0d
     b24:	7e 85       	ldd	r23, Y+14	; 0x0e
     b26:	8f 85       	ldd	r24, Y+15	; 0x0f
     b28:	0e 94 65 04 	call	0x8ca	; 0x8ca <writeReg>
     b2c:	89 81       	ldd	r24, Y+1	; 0x01
     b2e:	90 e0       	ldi	r25, 0x00	; 0
     b30:	98 2f       	mov	r25, r24
     b32:	88 27       	eor	r24, r24
     b34:	2a 81       	ldd	r18, Y+2	; 0x02
     b36:	82 2b       	or	r24, r18
     b38:	0f 90       	pop	r0
     b3a:	96 95       	lsr	r25
     b3c:	87 95       	ror	r24
     b3e:	2f 96       	adiw	r28, 0x0f	; 15
     b40:	0f b6       	in	r0, 0x3f	; 63
     b42:	f8 94       	cli
     b44:	de bf       	out	0x3e, r29	; 62
     b46:	0f be       	out	0x3f, r0	; 63
     b48:	cd bf       	out	0x3d, r28	; 61
     b4a:	df 91       	pop	r29
     b4c:	cf 91       	pop	r28
     b4e:	1f 91       	pop	r17
     b50:	0f 91       	pop	r16
     b52:	ff 90       	pop	r15
     b54:	ef 90       	pop	r14
     b56:	df 90       	pop	r13
     b58:	cf 90       	pop	r12
     b5a:	bf 90       	pop	r11
     b5c:	af 90       	pop	r10
     b5e:	9f 90       	pop	r9
     b60:	8f 90       	pop	r8
     b62:	7f 90       	pop	r7
     b64:	6f 90       	pop	r6
     b66:	5f 90       	pop	r5
     b68:	4f 90       	pop	r4
     b6a:	3f 90       	pop	r3
     b6c:	2f 90       	pop	r2
     b6e:	08 95       	ret

00000b70 <vfprintf>:
     b70:	a0 e1       	ldi	r26, 0x10	; 16
     b72:	b0 e0       	ldi	r27, 0x00	; 0
     b74:	ee eb       	ldi	r30, 0xBE	; 190
     b76:	f5 e0       	ldi	r31, 0x05	; 5
     b78:	0c 94 57 09 	jmp	0x12ae	; 0x12ae <__prologue_saves__>
     b7c:	7c 01       	movw	r14, r24
     b7e:	1b 01       	movw	r2, r22
     b80:	6a 01       	movw	r12, r20
     b82:	fc 01       	movw	r30, r24
     b84:	17 82       	std	Z+7, r1	; 0x07
     b86:	16 82       	std	Z+6, r1	; 0x06
     b88:	83 81       	ldd	r24, Z+3	; 0x03
     b8a:	81 ff       	sbrs	r24, 1
     b8c:	44 c3       	rjmp	.+1672   	; 0x1216 <vfprintf+0x6a6>
     b8e:	9e 01       	movw	r18, r28
     b90:	2f 5f       	subi	r18, 0xFF	; 255
     b92:	3f 4f       	sbci	r19, 0xFF	; 255
     b94:	39 01       	movw	r6, r18
     b96:	f7 01       	movw	r30, r14
     b98:	93 81       	ldd	r25, Z+3	; 0x03
     b9a:	f1 01       	movw	r30, r2
     b9c:	93 fd       	sbrc	r25, 3
     b9e:	85 91       	lpm	r24, Z+
     ba0:	93 ff       	sbrs	r25, 3
     ba2:	81 91       	ld	r24, Z+
     ba4:	1f 01       	movw	r2, r30
     ba6:	88 23       	and	r24, r24
     ba8:	09 f4       	brne	.+2      	; 0xbac <vfprintf+0x3c>
     baa:	31 c3       	rjmp	.+1634   	; 0x120e <vfprintf+0x69e>
     bac:	85 32       	cpi	r24, 0x25	; 37
     bae:	39 f4       	brne	.+14     	; 0xbbe <vfprintf+0x4e>
     bb0:	93 fd       	sbrc	r25, 3
     bb2:	85 91       	lpm	r24, Z+
     bb4:	93 ff       	sbrs	r25, 3
     bb6:	81 91       	ld	r24, Z+
     bb8:	1f 01       	movw	r2, r30
     bba:	85 32       	cpi	r24, 0x25	; 37
     bbc:	39 f4       	brne	.+14     	; 0xbcc <vfprintf+0x5c>
     bbe:	b7 01       	movw	r22, r14
     bc0:	90 e0       	ldi	r25, 0x00	; 0
     bc2:	0e 94 7c 0a 	call	0x14f8	; 0x14f8 <fputc>
     bc6:	56 01       	movw	r10, r12
     bc8:	65 01       	movw	r12, r10
     bca:	e5 cf       	rjmp	.-54     	; 0xb96 <vfprintf+0x26>
     bcc:	10 e0       	ldi	r17, 0x00	; 0
     bce:	51 2c       	mov	r5, r1
     bd0:	91 2c       	mov	r9, r1
     bd2:	ff e1       	ldi	r31, 0x1F	; 31
     bd4:	f9 15       	cp	r31, r9
     bd6:	d8 f0       	brcs	.+54     	; 0xc0e <vfprintf+0x9e>
     bd8:	8b 32       	cpi	r24, 0x2B	; 43
     bda:	79 f0       	breq	.+30     	; 0xbfa <vfprintf+0x8a>
     bdc:	38 f4       	brcc	.+14     	; 0xbec <vfprintf+0x7c>
     bde:	80 32       	cpi	r24, 0x20	; 32
     be0:	79 f0       	breq	.+30     	; 0xc00 <vfprintf+0x90>
     be2:	83 32       	cpi	r24, 0x23	; 35
     be4:	a1 f4       	brne	.+40     	; 0xc0e <vfprintf+0x9e>
     be6:	f9 2d       	mov	r31, r9
     be8:	f0 61       	ori	r31, 0x10	; 16
     bea:	2e c0       	rjmp	.+92     	; 0xc48 <vfprintf+0xd8>
     bec:	8d 32       	cpi	r24, 0x2D	; 45
     bee:	61 f0       	breq	.+24     	; 0xc08 <vfprintf+0x98>
     bf0:	80 33       	cpi	r24, 0x30	; 48
     bf2:	69 f4       	brne	.+26     	; 0xc0e <vfprintf+0x9e>
     bf4:	29 2d       	mov	r18, r9
     bf6:	21 60       	ori	r18, 0x01	; 1
     bf8:	2d c0       	rjmp	.+90     	; 0xc54 <vfprintf+0xe4>
     bfa:	39 2d       	mov	r19, r9
     bfc:	32 60       	ori	r19, 0x02	; 2
     bfe:	93 2e       	mov	r9, r19
     c00:	89 2d       	mov	r24, r9
     c02:	84 60       	ori	r24, 0x04	; 4
     c04:	98 2e       	mov	r9, r24
     c06:	2a c0       	rjmp	.+84     	; 0xc5c <vfprintf+0xec>
     c08:	e9 2d       	mov	r30, r9
     c0a:	e8 60       	ori	r30, 0x08	; 8
     c0c:	15 c0       	rjmp	.+42     	; 0xc38 <vfprintf+0xc8>
     c0e:	97 fc       	sbrc	r9, 7
     c10:	2d c0       	rjmp	.+90     	; 0xc6c <vfprintf+0xfc>
     c12:	20 ed       	ldi	r18, 0xD0	; 208
     c14:	28 0f       	add	r18, r24
     c16:	2a 30       	cpi	r18, 0x0A	; 10
     c18:	88 f4       	brcc	.+34     	; 0xc3c <vfprintf+0xcc>
     c1a:	96 fe       	sbrs	r9, 6
     c1c:	06 c0       	rjmp	.+12     	; 0xc2a <vfprintf+0xba>
     c1e:	3a e0       	ldi	r19, 0x0A	; 10
     c20:	13 9f       	mul	r17, r19
     c22:	20 0d       	add	r18, r0
     c24:	11 24       	eor	r1, r1
     c26:	12 2f       	mov	r17, r18
     c28:	19 c0       	rjmp	.+50     	; 0xc5c <vfprintf+0xec>
     c2a:	8a e0       	ldi	r24, 0x0A	; 10
     c2c:	58 9e       	mul	r5, r24
     c2e:	20 0d       	add	r18, r0
     c30:	11 24       	eor	r1, r1
     c32:	52 2e       	mov	r5, r18
     c34:	e9 2d       	mov	r30, r9
     c36:	e0 62       	ori	r30, 0x20	; 32
     c38:	9e 2e       	mov	r9, r30
     c3a:	10 c0       	rjmp	.+32     	; 0xc5c <vfprintf+0xec>
     c3c:	8e 32       	cpi	r24, 0x2E	; 46
     c3e:	31 f4       	brne	.+12     	; 0xc4c <vfprintf+0xdc>
     c40:	96 fc       	sbrc	r9, 6
     c42:	e5 c2       	rjmp	.+1482   	; 0x120e <vfprintf+0x69e>
     c44:	f9 2d       	mov	r31, r9
     c46:	f0 64       	ori	r31, 0x40	; 64
     c48:	9f 2e       	mov	r9, r31
     c4a:	08 c0       	rjmp	.+16     	; 0xc5c <vfprintf+0xec>
     c4c:	8c 36       	cpi	r24, 0x6C	; 108
     c4e:	21 f4       	brne	.+8      	; 0xc58 <vfprintf+0xe8>
     c50:	29 2d       	mov	r18, r9
     c52:	20 68       	ori	r18, 0x80	; 128
     c54:	92 2e       	mov	r9, r18
     c56:	02 c0       	rjmp	.+4      	; 0xc5c <vfprintf+0xec>
     c58:	88 36       	cpi	r24, 0x68	; 104
     c5a:	41 f4       	brne	.+16     	; 0xc6c <vfprintf+0xfc>
     c5c:	f1 01       	movw	r30, r2
     c5e:	93 fd       	sbrc	r25, 3
     c60:	85 91       	lpm	r24, Z+
     c62:	93 ff       	sbrs	r25, 3
     c64:	81 91       	ld	r24, Z+
     c66:	1f 01       	movw	r2, r30
     c68:	81 11       	cpse	r24, r1
     c6a:	b3 cf       	rjmp	.-154    	; 0xbd2 <vfprintf+0x62>
     c6c:	9b eb       	ldi	r25, 0xBB	; 187
     c6e:	98 0f       	add	r25, r24
     c70:	93 30       	cpi	r25, 0x03	; 3
     c72:	20 f4       	brcc	.+8      	; 0xc7c <vfprintf+0x10c>
     c74:	99 2d       	mov	r25, r9
     c76:	90 61       	ori	r25, 0x10	; 16
     c78:	80 5e       	subi	r24, 0xE0	; 224
     c7a:	07 c0       	rjmp	.+14     	; 0xc8a <vfprintf+0x11a>
     c7c:	9b e9       	ldi	r25, 0x9B	; 155
     c7e:	98 0f       	add	r25, r24
     c80:	93 30       	cpi	r25, 0x03	; 3
     c82:	08 f0       	brcs	.+2      	; 0xc86 <vfprintf+0x116>
     c84:	66 c1       	rjmp	.+716    	; 0xf52 <vfprintf+0x3e2>
     c86:	99 2d       	mov	r25, r9
     c88:	9f 7e       	andi	r25, 0xEF	; 239
     c8a:	96 ff       	sbrs	r25, 6
     c8c:	16 e0       	ldi	r17, 0x06	; 6
     c8e:	9f 73       	andi	r25, 0x3F	; 63
     c90:	99 2e       	mov	r9, r25
     c92:	85 36       	cpi	r24, 0x65	; 101
     c94:	19 f4       	brne	.+6      	; 0xc9c <vfprintf+0x12c>
     c96:	90 64       	ori	r25, 0x40	; 64
     c98:	99 2e       	mov	r9, r25
     c9a:	08 c0       	rjmp	.+16     	; 0xcac <vfprintf+0x13c>
     c9c:	86 36       	cpi	r24, 0x66	; 102
     c9e:	21 f4       	brne	.+8      	; 0xca8 <vfprintf+0x138>
     ca0:	39 2f       	mov	r19, r25
     ca2:	30 68       	ori	r19, 0x80	; 128
     ca4:	93 2e       	mov	r9, r19
     ca6:	02 c0       	rjmp	.+4      	; 0xcac <vfprintf+0x13c>
     ca8:	11 11       	cpse	r17, r1
     caa:	11 50       	subi	r17, 0x01	; 1
     cac:	97 fe       	sbrs	r9, 7
     cae:	07 c0       	rjmp	.+14     	; 0xcbe <vfprintf+0x14e>
     cb0:	1c 33       	cpi	r17, 0x3C	; 60
     cb2:	50 f4       	brcc	.+20     	; 0xcc8 <vfprintf+0x158>
     cb4:	44 24       	eor	r4, r4
     cb6:	43 94       	inc	r4
     cb8:	41 0e       	add	r4, r17
     cba:	27 e0       	ldi	r18, 0x07	; 7
     cbc:	0b c0       	rjmp	.+22     	; 0xcd4 <vfprintf+0x164>
     cbe:	18 30       	cpi	r17, 0x08	; 8
     cc0:	38 f0       	brcs	.+14     	; 0xcd0 <vfprintf+0x160>
     cc2:	27 e0       	ldi	r18, 0x07	; 7
     cc4:	17 e0       	ldi	r17, 0x07	; 7
     cc6:	05 c0       	rjmp	.+10     	; 0xcd2 <vfprintf+0x162>
     cc8:	27 e0       	ldi	r18, 0x07	; 7
     cca:	9c e3       	ldi	r25, 0x3C	; 60
     ccc:	49 2e       	mov	r4, r25
     cce:	02 c0       	rjmp	.+4      	; 0xcd4 <vfprintf+0x164>
     cd0:	21 2f       	mov	r18, r17
     cd2:	41 2c       	mov	r4, r1
     cd4:	56 01       	movw	r10, r12
     cd6:	84 e0       	ldi	r24, 0x04	; 4
     cd8:	a8 0e       	add	r10, r24
     cda:	b1 1c       	adc	r11, r1
     cdc:	f6 01       	movw	r30, r12
     cde:	60 81       	ld	r22, Z
     ce0:	71 81       	ldd	r23, Z+1	; 0x01
     ce2:	82 81       	ldd	r24, Z+2	; 0x02
     ce4:	93 81       	ldd	r25, Z+3	; 0x03
     ce6:	04 2d       	mov	r16, r4
     ce8:	a3 01       	movw	r20, r6
     cea:	0e 94 8e 09 	call	0x131c	; 0x131c <__ftoa_engine>
     cee:	6c 01       	movw	r12, r24
     cf0:	f9 81       	ldd	r31, Y+1	; 0x01
     cf2:	fc 87       	std	Y+12, r31	; 0x0c
     cf4:	f0 ff       	sbrs	r31, 0
     cf6:	02 c0       	rjmp	.+4      	; 0xcfc <vfprintf+0x18c>
     cf8:	f3 ff       	sbrs	r31, 3
     cfa:	06 c0       	rjmp	.+12     	; 0xd08 <vfprintf+0x198>
     cfc:	91 fc       	sbrc	r9, 1
     cfe:	06 c0       	rjmp	.+12     	; 0xd0c <vfprintf+0x19c>
     d00:	92 fe       	sbrs	r9, 2
     d02:	06 c0       	rjmp	.+12     	; 0xd10 <vfprintf+0x1a0>
     d04:	00 e2       	ldi	r16, 0x20	; 32
     d06:	05 c0       	rjmp	.+10     	; 0xd12 <vfprintf+0x1a2>
     d08:	0d e2       	ldi	r16, 0x2D	; 45
     d0a:	03 c0       	rjmp	.+6      	; 0xd12 <vfprintf+0x1a2>
     d0c:	0b e2       	ldi	r16, 0x2B	; 43
     d0e:	01 c0       	rjmp	.+2      	; 0xd12 <vfprintf+0x1a2>
     d10:	00 e0       	ldi	r16, 0x00	; 0
     d12:	8c 85       	ldd	r24, Y+12	; 0x0c
     d14:	8c 70       	andi	r24, 0x0C	; 12
     d16:	19 f0       	breq	.+6      	; 0xd1e <vfprintf+0x1ae>
     d18:	01 11       	cpse	r16, r1
     d1a:	5a c2       	rjmp	.+1204   	; 0x11d0 <vfprintf+0x660>
     d1c:	9b c2       	rjmp	.+1334   	; 0x1254 <vfprintf+0x6e4>
     d1e:	97 fe       	sbrs	r9, 7
     d20:	10 c0       	rjmp	.+32     	; 0xd42 <vfprintf+0x1d2>
     d22:	4c 0c       	add	r4, r12
     d24:	fc 85       	ldd	r31, Y+12	; 0x0c
     d26:	f4 ff       	sbrs	r31, 4
     d28:	04 c0       	rjmp	.+8      	; 0xd32 <vfprintf+0x1c2>
     d2a:	8a 81       	ldd	r24, Y+2	; 0x02
     d2c:	81 33       	cpi	r24, 0x31	; 49
     d2e:	09 f4       	brne	.+2      	; 0xd32 <vfprintf+0x1c2>
     d30:	4a 94       	dec	r4
     d32:	14 14       	cp	r1, r4
     d34:	74 f5       	brge	.+92     	; 0xd92 <vfprintf+0x222>
     d36:	28 e0       	ldi	r18, 0x08	; 8
     d38:	24 15       	cp	r18, r4
     d3a:	78 f5       	brcc	.+94     	; 0xd9a <vfprintf+0x22a>
     d3c:	88 e0       	ldi	r24, 0x08	; 8
     d3e:	48 2e       	mov	r4, r24
     d40:	2c c0       	rjmp	.+88     	; 0xd9a <vfprintf+0x22a>
     d42:	96 fc       	sbrc	r9, 6
     d44:	2a c0       	rjmp	.+84     	; 0xd9a <vfprintf+0x22a>
     d46:	81 2f       	mov	r24, r17
     d48:	90 e0       	ldi	r25, 0x00	; 0
     d4a:	8c 15       	cp	r24, r12
     d4c:	9d 05       	cpc	r25, r13
     d4e:	9c f0       	brlt	.+38     	; 0xd76 <vfprintf+0x206>
     d50:	3c ef       	ldi	r19, 0xFC	; 252
     d52:	c3 16       	cp	r12, r19
     d54:	3f ef       	ldi	r19, 0xFF	; 255
     d56:	d3 06       	cpc	r13, r19
     d58:	74 f0       	brlt	.+28     	; 0xd76 <vfprintf+0x206>
     d5a:	89 2d       	mov	r24, r9
     d5c:	80 68       	ori	r24, 0x80	; 128
     d5e:	98 2e       	mov	r9, r24
     d60:	0a c0       	rjmp	.+20     	; 0xd76 <vfprintf+0x206>
     d62:	e2 e0       	ldi	r30, 0x02	; 2
     d64:	f0 e0       	ldi	r31, 0x00	; 0
     d66:	ec 0f       	add	r30, r28
     d68:	fd 1f       	adc	r31, r29
     d6a:	e1 0f       	add	r30, r17
     d6c:	f1 1d       	adc	r31, r1
     d6e:	80 81       	ld	r24, Z
     d70:	80 33       	cpi	r24, 0x30	; 48
     d72:	19 f4       	brne	.+6      	; 0xd7a <vfprintf+0x20a>
     d74:	11 50       	subi	r17, 0x01	; 1
     d76:	11 11       	cpse	r17, r1
     d78:	f4 cf       	rjmp	.-24     	; 0xd62 <vfprintf+0x1f2>
     d7a:	97 fe       	sbrs	r9, 7
     d7c:	0e c0       	rjmp	.+28     	; 0xd9a <vfprintf+0x22a>
     d7e:	44 24       	eor	r4, r4
     d80:	43 94       	inc	r4
     d82:	41 0e       	add	r4, r17
     d84:	81 2f       	mov	r24, r17
     d86:	90 e0       	ldi	r25, 0x00	; 0
     d88:	c8 16       	cp	r12, r24
     d8a:	d9 06       	cpc	r13, r25
     d8c:	2c f4       	brge	.+10     	; 0xd98 <vfprintf+0x228>
     d8e:	1c 19       	sub	r17, r12
     d90:	04 c0       	rjmp	.+8      	; 0xd9a <vfprintf+0x22a>
     d92:	44 24       	eor	r4, r4
     d94:	43 94       	inc	r4
     d96:	01 c0       	rjmp	.+2      	; 0xd9a <vfprintf+0x22a>
     d98:	10 e0       	ldi	r17, 0x00	; 0
     d9a:	97 fe       	sbrs	r9, 7
     d9c:	06 c0       	rjmp	.+12     	; 0xdaa <vfprintf+0x23a>
     d9e:	1c 14       	cp	r1, r12
     da0:	1d 04       	cpc	r1, r13
     da2:	34 f4       	brge	.+12     	; 0xdb0 <vfprintf+0x240>
     da4:	c6 01       	movw	r24, r12
     da6:	01 96       	adiw	r24, 0x01	; 1
     da8:	05 c0       	rjmp	.+10     	; 0xdb4 <vfprintf+0x244>
     daa:	85 e0       	ldi	r24, 0x05	; 5
     dac:	90 e0       	ldi	r25, 0x00	; 0
     dae:	02 c0       	rjmp	.+4      	; 0xdb4 <vfprintf+0x244>
     db0:	81 e0       	ldi	r24, 0x01	; 1
     db2:	90 e0       	ldi	r25, 0x00	; 0
     db4:	01 11       	cpse	r16, r1
     db6:	01 96       	adiw	r24, 0x01	; 1
     db8:	11 23       	and	r17, r17
     dba:	31 f0       	breq	.+12     	; 0xdc8 <vfprintf+0x258>
     dbc:	21 2f       	mov	r18, r17
     dbe:	30 e0       	ldi	r19, 0x00	; 0
     dc0:	2f 5f       	subi	r18, 0xFF	; 255
     dc2:	3f 4f       	sbci	r19, 0xFF	; 255
     dc4:	82 0f       	add	r24, r18
     dc6:	93 1f       	adc	r25, r19
     dc8:	25 2d       	mov	r18, r5
     dca:	30 e0       	ldi	r19, 0x00	; 0
     dcc:	82 17       	cp	r24, r18
     dce:	93 07       	cpc	r25, r19
     dd0:	14 f4       	brge	.+4      	; 0xdd6 <vfprintf+0x266>
     dd2:	58 1a       	sub	r5, r24
     dd4:	01 c0       	rjmp	.+2      	; 0xdd8 <vfprintf+0x268>
     dd6:	51 2c       	mov	r5, r1
     dd8:	89 2d       	mov	r24, r9
     dda:	89 70       	andi	r24, 0x09	; 9
     ddc:	49 f4       	brne	.+18     	; 0xdf0 <vfprintf+0x280>
     dde:	55 20       	and	r5, r5
     de0:	39 f0       	breq	.+14     	; 0xdf0 <vfprintf+0x280>
     de2:	b7 01       	movw	r22, r14
     de4:	80 e2       	ldi	r24, 0x20	; 32
     de6:	90 e0       	ldi	r25, 0x00	; 0
     de8:	0e 94 7c 0a 	call	0x14f8	; 0x14f8 <fputc>
     dec:	5a 94       	dec	r5
     dee:	f7 cf       	rjmp	.-18     	; 0xdde <vfprintf+0x26e>
     df0:	00 23       	and	r16, r16
     df2:	29 f0       	breq	.+10     	; 0xdfe <vfprintf+0x28e>
     df4:	b7 01       	movw	r22, r14
     df6:	80 2f       	mov	r24, r16
     df8:	90 e0       	ldi	r25, 0x00	; 0
     dfa:	0e 94 7c 0a 	call	0x14f8	; 0x14f8 <fputc>
     dfe:	93 fc       	sbrc	r9, 3
     e00:	09 c0       	rjmp	.+18     	; 0xe14 <vfprintf+0x2a4>
     e02:	55 20       	and	r5, r5
     e04:	39 f0       	breq	.+14     	; 0xe14 <vfprintf+0x2a4>
     e06:	b7 01       	movw	r22, r14
     e08:	80 e3       	ldi	r24, 0x30	; 48
     e0a:	90 e0       	ldi	r25, 0x00	; 0
     e0c:	0e 94 7c 0a 	call	0x14f8	; 0x14f8 <fputc>
     e10:	5a 94       	dec	r5
     e12:	f7 cf       	rjmp	.-18     	; 0xe02 <vfprintf+0x292>
     e14:	97 fe       	sbrs	r9, 7
     e16:	4c c0       	rjmp	.+152    	; 0xeb0 <vfprintf+0x340>
     e18:	46 01       	movw	r8, r12
     e1a:	d7 fe       	sbrs	r13, 7
     e1c:	02 c0       	rjmp	.+4      	; 0xe22 <vfprintf+0x2b2>
     e1e:	81 2c       	mov	r8, r1
     e20:	91 2c       	mov	r9, r1
     e22:	c6 01       	movw	r24, r12
     e24:	88 19       	sub	r24, r8
     e26:	99 09       	sbc	r25, r9
     e28:	f3 01       	movw	r30, r6
     e2a:	e8 0f       	add	r30, r24
     e2c:	f9 1f       	adc	r31, r25
     e2e:	fe 87       	std	Y+14, r31	; 0x0e
     e30:	ed 87       	std	Y+13, r30	; 0x0d
     e32:	96 01       	movw	r18, r12
     e34:	24 19       	sub	r18, r4
     e36:	31 09       	sbc	r19, r1
     e38:	38 8b       	std	Y+16, r19	; 0x10
     e3a:	2f 87       	std	Y+15, r18	; 0x0f
     e3c:	01 2f       	mov	r16, r17
     e3e:	10 e0       	ldi	r17, 0x00	; 0
     e40:	11 95       	neg	r17
     e42:	01 95       	neg	r16
     e44:	11 09       	sbc	r17, r1
     e46:	3f ef       	ldi	r19, 0xFF	; 255
     e48:	83 16       	cp	r8, r19
     e4a:	93 06       	cpc	r9, r19
     e4c:	29 f4       	brne	.+10     	; 0xe58 <vfprintf+0x2e8>
     e4e:	b7 01       	movw	r22, r14
     e50:	8e e2       	ldi	r24, 0x2E	; 46
     e52:	90 e0       	ldi	r25, 0x00	; 0
     e54:	0e 94 7c 0a 	call	0x14f8	; 0x14f8 <fputc>
     e58:	c8 14       	cp	r12, r8
     e5a:	d9 04       	cpc	r13, r9
     e5c:	4c f0       	brlt	.+18     	; 0xe70 <vfprintf+0x300>
     e5e:	8f 85       	ldd	r24, Y+15	; 0x0f
     e60:	98 89       	ldd	r25, Y+16	; 0x10
     e62:	88 15       	cp	r24, r8
     e64:	99 05       	cpc	r25, r9
     e66:	24 f4       	brge	.+8      	; 0xe70 <vfprintf+0x300>
     e68:	ed 85       	ldd	r30, Y+13	; 0x0d
     e6a:	fe 85       	ldd	r31, Y+14	; 0x0e
     e6c:	81 81       	ldd	r24, Z+1	; 0x01
     e6e:	01 c0       	rjmp	.+2      	; 0xe72 <vfprintf+0x302>
     e70:	80 e3       	ldi	r24, 0x30	; 48
     e72:	f1 e0       	ldi	r31, 0x01	; 1
     e74:	8f 1a       	sub	r8, r31
     e76:	91 08       	sbc	r9, r1
     e78:	2d 85       	ldd	r18, Y+13	; 0x0d
     e7a:	3e 85       	ldd	r19, Y+14	; 0x0e
     e7c:	2f 5f       	subi	r18, 0xFF	; 255
     e7e:	3f 4f       	sbci	r19, 0xFF	; 255
     e80:	3e 87       	std	Y+14, r19	; 0x0e
     e82:	2d 87       	std	Y+13, r18	; 0x0d
     e84:	80 16       	cp	r8, r16
     e86:	91 06       	cpc	r9, r17
     e88:	2c f0       	brlt	.+10     	; 0xe94 <vfprintf+0x324>
     e8a:	b7 01       	movw	r22, r14
     e8c:	90 e0       	ldi	r25, 0x00	; 0
     e8e:	0e 94 7c 0a 	call	0x14f8	; 0x14f8 <fputc>
     e92:	d9 cf       	rjmp	.-78     	; 0xe46 <vfprintf+0x2d6>
     e94:	c8 14       	cp	r12, r8
     e96:	d9 04       	cpc	r13, r9
     e98:	41 f4       	brne	.+16     	; 0xeaa <vfprintf+0x33a>
     e9a:	9a 81       	ldd	r25, Y+2	; 0x02
     e9c:	96 33       	cpi	r25, 0x36	; 54
     e9e:	20 f4       	brcc	.+8      	; 0xea8 <vfprintf+0x338>
     ea0:	95 33       	cpi	r25, 0x35	; 53
     ea2:	19 f4       	brne	.+6      	; 0xeaa <vfprintf+0x33a>
     ea4:	3c 85       	ldd	r19, Y+12	; 0x0c
     ea6:	34 ff       	sbrs	r19, 4
     ea8:	81 e3       	ldi	r24, 0x31	; 49
     eaa:	b7 01       	movw	r22, r14
     eac:	90 e0       	ldi	r25, 0x00	; 0
     eae:	4e c0       	rjmp	.+156    	; 0xf4c <vfprintf+0x3dc>
     eb0:	8a 81       	ldd	r24, Y+2	; 0x02
     eb2:	81 33       	cpi	r24, 0x31	; 49
     eb4:	19 f0       	breq	.+6      	; 0xebc <vfprintf+0x34c>
     eb6:	9c 85       	ldd	r25, Y+12	; 0x0c
     eb8:	9f 7e       	andi	r25, 0xEF	; 239
     eba:	9c 87       	std	Y+12, r25	; 0x0c
     ebc:	b7 01       	movw	r22, r14
     ebe:	90 e0       	ldi	r25, 0x00	; 0
     ec0:	0e 94 7c 0a 	call	0x14f8	; 0x14f8 <fputc>
     ec4:	11 11       	cpse	r17, r1
     ec6:	05 c0       	rjmp	.+10     	; 0xed2 <vfprintf+0x362>
     ec8:	94 fc       	sbrc	r9, 4
     eca:	18 c0       	rjmp	.+48     	; 0xefc <vfprintf+0x38c>
     ecc:	85 e6       	ldi	r24, 0x65	; 101
     ece:	90 e0       	ldi	r25, 0x00	; 0
     ed0:	17 c0       	rjmp	.+46     	; 0xf00 <vfprintf+0x390>
     ed2:	b7 01       	movw	r22, r14
     ed4:	8e e2       	ldi	r24, 0x2E	; 46
     ed6:	90 e0       	ldi	r25, 0x00	; 0
     ed8:	0e 94 7c 0a 	call	0x14f8	; 0x14f8 <fputc>
     edc:	1e 5f       	subi	r17, 0xFE	; 254
     ede:	82 e0       	ldi	r24, 0x02	; 2
     ee0:	01 e0       	ldi	r16, 0x01	; 1
     ee2:	08 0f       	add	r16, r24
     ee4:	f3 01       	movw	r30, r6
     ee6:	e8 0f       	add	r30, r24
     ee8:	f1 1d       	adc	r31, r1
     eea:	80 81       	ld	r24, Z
     eec:	b7 01       	movw	r22, r14
     eee:	90 e0       	ldi	r25, 0x00	; 0
     ef0:	0e 94 7c 0a 	call	0x14f8	; 0x14f8 <fputc>
     ef4:	80 2f       	mov	r24, r16
     ef6:	01 13       	cpse	r16, r17
     ef8:	f3 cf       	rjmp	.-26     	; 0xee0 <vfprintf+0x370>
     efa:	e6 cf       	rjmp	.-52     	; 0xec8 <vfprintf+0x358>
     efc:	85 e4       	ldi	r24, 0x45	; 69
     efe:	90 e0       	ldi	r25, 0x00	; 0
     f00:	b7 01       	movw	r22, r14
     f02:	0e 94 7c 0a 	call	0x14f8	; 0x14f8 <fputc>
     f06:	d7 fc       	sbrc	r13, 7
     f08:	06 c0       	rjmp	.+12     	; 0xf16 <vfprintf+0x3a6>
     f0a:	c1 14       	cp	r12, r1
     f0c:	d1 04       	cpc	r13, r1
     f0e:	41 f4       	brne	.+16     	; 0xf20 <vfprintf+0x3b0>
     f10:	ec 85       	ldd	r30, Y+12	; 0x0c
     f12:	e4 ff       	sbrs	r30, 4
     f14:	05 c0       	rjmp	.+10     	; 0xf20 <vfprintf+0x3b0>
     f16:	d1 94       	neg	r13
     f18:	c1 94       	neg	r12
     f1a:	d1 08       	sbc	r13, r1
     f1c:	8d e2       	ldi	r24, 0x2D	; 45
     f1e:	01 c0       	rjmp	.+2      	; 0xf22 <vfprintf+0x3b2>
     f20:	8b e2       	ldi	r24, 0x2B	; 43
     f22:	b7 01       	movw	r22, r14
     f24:	90 e0       	ldi	r25, 0x00	; 0
     f26:	0e 94 7c 0a 	call	0x14f8	; 0x14f8 <fputc>
     f2a:	80 e3       	ldi	r24, 0x30	; 48
     f2c:	2a e0       	ldi	r18, 0x0A	; 10
     f2e:	c2 16       	cp	r12, r18
     f30:	d1 04       	cpc	r13, r1
     f32:	2c f0       	brlt	.+10     	; 0xf3e <vfprintf+0x3ce>
     f34:	8f 5f       	subi	r24, 0xFF	; 255
     f36:	fa e0       	ldi	r31, 0x0A	; 10
     f38:	cf 1a       	sub	r12, r31
     f3a:	d1 08       	sbc	r13, r1
     f3c:	f7 cf       	rjmp	.-18     	; 0xf2c <vfprintf+0x3bc>
     f3e:	b7 01       	movw	r22, r14
     f40:	90 e0       	ldi	r25, 0x00	; 0
     f42:	0e 94 7c 0a 	call	0x14f8	; 0x14f8 <fputc>
     f46:	b7 01       	movw	r22, r14
     f48:	c6 01       	movw	r24, r12
     f4a:	c0 96       	adiw	r24, 0x30	; 48
     f4c:	0e 94 7c 0a 	call	0x14f8	; 0x14f8 <fputc>
     f50:	54 c1       	rjmp	.+680    	; 0x11fa <vfprintf+0x68a>
     f52:	83 36       	cpi	r24, 0x63	; 99
     f54:	31 f0       	breq	.+12     	; 0xf62 <vfprintf+0x3f2>
     f56:	83 37       	cpi	r24, 0x73	; 115
     f58:	79 f0       	breq	.+30     	; 0xf78 <vfprintf+0x408>
     f5a:	83 35       	cpi	r24, 0x53	; 83
     f5c:	09 f0       	breq	.+2      	; 0xf60 <vfprintf+0x3f0>
     f5e:	56 c0       	rjmp	.+172    	; 0x100c <vfprintf+0x49c>
     f60:	20 c0       	rjmp	.+64     	; 0xfa2 <vfprintf+0x432>
     f62:	56 01       	movw	r10, r12
     f64:	32 e0       	ldi	r19, 0x02	; 2
     f66:	a3 0e       	add	r10, r19
     f68:	b1 1c       	adc	r11, r1
     f6a:	f6 01       	movw	r30, r12
     f6c:	80 81       	ld	r24, Z
     f6e:	89 83       	std	Y+1, r24	; 0x01
     f70:	01 e0       	ldi	r16, 0x01	; 1
     f72:	10 e0       	ldi	r17, 0x00	; 0
     f74:	63 01       	movw	r12, r6
     f76:	12 c0       	rjmp	.+36     	; 0xf9c <vfprintf+0x42c>
     f78:	56 01       	movw	r10, r12
     f7a:	f2 e0       	ldi	r31, 0x02	; 2
     f7c:	af 0e       	add	r10, r31
     f7e:	b1 1c       	adc	r11, r1
     f80:	f6 01       	movw	r30, r12
     f82:	c0 80       	ld	r12, Z
     f84:	d1 80       	ldd	r13, Z+1	; 0x01
     f86:	96 fe       	sbrs	r9, 6
     f88:	03 c0       	rjmp	.+6      	; 0xf90 <vfprintf+0x420>
     f8a:	61 2f       	mov	r22, r17
     f8c:	70 e0       	ldi	r23, 0x00	; 0
     f8e:	02 c0       	rjmp	.+4      	; 0xf94 <vfprintf+0x424>
     f90:	6f ef       	ldi	r22, 0xFF	; 255
     f92:	7f ef       	ldi	r23, 0xFF	; 255
     f94:	c6 01       	movw	r24, r12
     f96:	0e 94 71 0a 	call	0x14e2	; 0x14e2 <strnlen>
     f9a:	8c 01       	movw	r16, r24
     f9c:	f9 2d       	mov	r31, r9
     f9e:	ff 77       	andi	r31, 0x7F	; 127
     fa0:	14 c0       	rjmp	.+40     	; 0xfca <vfprintf+0x45a>
     fa2:	56 01       	movw	r10, r12
     fa4:	22 e0       	ldi	r18, 0x02	; 2
     fa6:	a2 0e       	add	r10, r18
     fa8:	b1 1c       	adc	r11, r1
     faa:	f6 01       	movw	r30, r12
     fac:	c0 80       	ld	r12, Z
     fae:	d1 80       	ldd	r13, Z+1	; 0x01
     fb0:	96 fe       	sbrs	r9, 6
     fb2:	03 c0       	rjmp	.+6      	; 0xfba <vfprintf+0x44a>
     fb4:	61 2f       	mov	r22, r17
     fb6:	70 e0       	ldi	r23, 0x00	; 0
     fb8:	02 c0       	rjmp	.+4      	; 0xfbe <vfprintf+0x44e>
     fba:	6f ef       	ldi	r22, 0xFF	; 255
     fbc:	7f ef       	ldi	r23, 0xFF	; 255
     fbe:	c6 01       	movw	r24, r12
     fc0:	0e 94 66 0a 	call	0x14cc	; 0x14cc <strnlen_P>
     fc4:	8c 01       	movw	r16, r24
     fc6:	f9 2d       	mov	r31, r9
     fc8:	f0 68       	ori	r31, 0x80	; 128
     fca:	9f 2e       	mov	r9, r31
     fcc:	f3 fd       	sbrc	r31, 3
     fce:	1a c0       	rjmp	.+52     	; 0x1004 <vfprintf+0x494>
     fd0:	85 2d       	mov	r24, r5
     fd2:	90 e0       	ldi	r25, 0x00	; 0
     fd4:	08 17       	cp	r16, r24
     fd6:	19 07       	cpc	r17, r25
     fd8:	a8 f4       	brcc	.+42     	; 0x1004 <vfprintf+0x494>
     fda:	b7 01       	movw	r22, r14
     fdc:	80 e2       	ldi	r24, 0x20	; 32
     fde:	90 e0       	ldi	r25, 0x00	; 0
     fe0:	0e 94 7c 0a 	call	0x14f8	; 0x14f8 <fputc>
     fe4:	5a 94       	dec	r5
     fe6:	f4 cf       	rjmp	.-24     	; 0xfd0 <vfprintf+0x460>
     fe8:	f6 01       	movw	r30, r12
     fea:	97 fc       	sbrc	r9, 7
     fec:	85 91       	lpm	r24, Z+
     fee:	97 fe       	sbrs	r9, 7
     ff0:	81 91       	ld	r24, Z+
     ff2:	6f 01       	movw	r12, r30
     ff4:	b7 01       	movw	r22, r14
     ff6:	90 e0       	ldi	r25, 0x00	; 0
     ff8:	0e 94 7c 0a 	call	0x14f8	; 0x14f8 <fputc>
     ffc:	51 10       	cpse	r5, r1
     ffe:	5a 94       	dec	r5
    1000:	01 50       	subi	r16, 0x01	; 1
    1002:	11 09       	sbc	r17, r1
    1004:	01 15       	cp	r16, r1
    1006:	11 05       	cpc	r17, r1
    1008:	79 f7       	brne	.-34     	; 0xfe8 <vfprintf+0x478>
    100a:	f7 c0       	rjmp	.+494    	; 0x11fa <vfprintf+0x68a>
    100c:	84 36       	cpi	r24, 0x64	; 100
    100e:	11 f0       	breq	.+4      	; 0x1014 <vfprintf+0x4a4>
    1010:	89 36       	cpi	r24, 0x69	; 105
    1012:	61 f5       	brne	.+88     	; 0x106c <vfprintf+0x4fc>
    1014:	56 01       	movw	r10, r12
    1016:	97 fe       	sbrs	r9, 7
    1018:	09 c0       	rjmp	.+18     	; 0x102c <vfprintf+0x4bc>
    101a:	24 e0       	ldi	r18, 0x04	; 4
    101c:	a2 0e       	add	r10, r18
    101e:	b1 1c       	adc	r11, r1
    1020:	f6 01       	movw	r30, r12
    1022:	60 81       	ld	r22, Z
    1024:	71 81       	ldd	r23, Z+1	; 0x01
    1026:	82 81       	ldd	r24, Z+2	; 0x02
    1028:	93 81       	ldd	r25, Z+3	; 0x03
    102a:	0a c0       	rjmp	.+20     	; 0x1040 <vfprintf+0x4d0>
    102c:	f2 e0       	ldi	r31, 0x02	; 2
    102e:	af 0e       	add	r10, r31
    1030:	b1 1c       	adc	r11, r1
    1032:	f6 01       	movw	r30, r12
    1034:	60 81       	ld	r22, Z
    1036:	71 81       	ldd	r23, Z+1	; 0x01
    1038:	07 2e       	mov	r0, r23
    103a:	00 0c       	add	r0, r0
    103c:	88 0b       	sbc	r24, r24
    103e:	99 0b       	sbc	r25, r25
    1040:	f9 2d       	mov	r31, r9
    1042:	ff 76       	andi	r31, 0x6F	; 111
    1044:	9f 2e       	mov	r9, r31
    1046:	97 ff       	sbrs	r25, 7
    1048:	09 c0       	rjmp	.+18     	; 0x105c <vfprintf+0x4ec>
    104a:	90 95       	com	r25
    104c:	80 95       	com	r24
    104e:	70 95       	com	r23
    1050:	61 95       	neg	r22
    1052:	7f 4f       	sbci	r23, 0xFF	; 255
    1054:	8f 4f       	sbci	r24, 0xFF	; 255
    1056:	9f 4f       	sbci	r25, 0xFF	; 255
    1058:	f0 68       	ori	r31, 0x80	; 128
    105a:	9f 2e       	mov	r9, r31
    105c:	2a e0       	ldi	r18, 0x0A	; 10
    105e:	30 e0       	ldi	r19, 0x00	; 0
    1060:	a3 01       	movw	r20, r6
    1062:	0e 94 da 0a 	call	0x15b4	; 0x15b4 <__ultoa_invert>
    1066:	c8 2e       	mov	r12, r24
    1068:	c6 18       	sub	r12, r6
    106a:	3f c0       	rjmp	.+126    	; 0x10ea <vfprintf+0x57a>
    106c:	09 2d       	mov	r16, r9
    106e:	85 37       	cpi	r24, 0x75	; 117
    1070:	21 f4       	brne	.+8      	; 0x107a <vfprintf+0x50a>
    1072:	0f 7e       	andi	r16, 0xEF	; 239
    1074:	2a e0       	ldi	r18, 0x0A	; 10
    1076:	30 e0       	ldi	r19, 0x00	; 0
    1078:	1d c0       	rjmp	.+58     	; 0x10b4 <vfprintf+0x544>
    107a:	09 7f       	andi	r16, 0xF9	; 249
    107c:	8f 36       	cpi	r24, 0x6F	; 111
    107e:	91 f0       	breq	.+36     	; 0x10a4 <vfprintf+0x534>
    1080:	18 f4       	brcc	.+6      	; 0x1088 <vfprintf+0x518>
    1082:	88 35       	cpi	r24, 0x58	; 88
    1084:	59 f0       	breq	.+22     	; 0x109c <vfprintf+0x52c>
    1086:	c3 c0       	rjmp	.+390    	; 0x120e <vfprintf+0x69e>
    1088:	80 37       	cpi	r24, 0x70	; 112
    108a:	19 f0       	breq	.+6      	; 0x1092 <vfprintf+0x522>
    108c:	88 37       	cpi	r24, 0x78	; 120
    108e:	11 f0       	breq	.+4      	; 0x1094 <vfprintf+0x524>
    1090:	be c0       	rjmp	.+380    	; 0x120e <vfprintf+0x69e>
    1092:	00 61       	ori	r16, 0x10	; 16
    1094:	04 ff       	sbrs	r16, 4
    1096:	09 c0       	rjmp	.+18     	; 0x10aa <vfprintf+0x53a>
    1098:	04 60       	ori	r16, 0x04	; 4
    109a:	07 c0       	rjmp	.+14     	; 0x10aa <vfprintf+0x53a>
    109c:	94 fe       	sbrs	r9, 4
    109e:	08 c0       	rjmp	.+16     	; 0x10b0 <vfprintf+0x540>
    10a0:	06 60       	ori	r16, 0x06	; 6
    10a2:	06 c0       	rjmp	.+12     	; 0x10b0 <vfprintf+0x540>
    10a4:	28 e0       	ldi	r18, 0x08	; 8
    10a6:	30 e0       	ldi	r19, 0x00	; 0
    10a8:	05 c0       	rjmp	.+10     	; 0x10b4 <vfprintf+0x544>
    10aa:	20 e1       	ldi	r18, 0x10	; 16
    10ac:	30 e0       	ldi	r19, 0x00	; 0
    10ae:	02 c0       	rjmp	.+4      	; 0x10b4 <vfprintf+0x544>
    10b0:	20 e1       	ldi	r18, 0x10	; 16
    10b2:	32 e0       	ldi	r19, 0x02	; 2
    10b4:	56 01       	movw	r10, r12
    10b6:	07 ff       	sbrs	r16, 7
    10b8:	09 c0       	rjmp	.+18     	; 0x10cc <vfprintf+0x55c>
    10ba:	84 e0       	ldi	r24, 0x04	; 4
    10bc:	a8 0e       	add	r10, r24
    10be:	b1 1c       	adc	r11, r1
    10c0:	f6 01       	movw	r30, r12
    10c2:	60 81       	ld	r22, Z
    10c4:	71 81       	ldd	r23, Z+1	; 0x01
    10c6:	82 81       	ldd	r24, Z+2	; 0x02
    10c8:	93 81       	ldd	r25, Z+3	; 0x03
    10ca:	08 c0       	rjmp	.+16     	; 0x10dc <vfprintf+0x56c>
    10cc:	f2 e0       	ldi	r31, 0x02	; 2
    10ce:	af 0e       	add	r10, r31
    10d0:	b1 1c       	adc	r11, r1
    10d2:	f6 01       	movw	r30, r12
    10d4:	60 81       	ld	r22, Z
    10d6:	71 81       	ldd	r23, Z+1	; 0x01
    10d8:	80 e0       	ldi	r24, 0x00	; 0
    10da:	90 e0       	ldi	r25, 0x00	; 0
    10dc:	a3 01       	movw	r20, r6
    10de:	0e 94 da 0a 	call	0x15b4	; 0x15b4 <__ultoa_invert>
    10e2:	c8 2e       	mov	r12, r24
    10e4:	c6 18       	sub	r12, r6
    10e6:	0f 77       	andi	r16, 0x7F	; 127
    10e8:	90 2e       	mov	r9, r16
    10ea:	96 fe       	sbrs	r9, 6
    10ec:	0b c0       	rjmp	.+22     	; 0x1104 <vfprintf+0x594>
    10ee:	09 2d       	mov	r16, r9
    10f0:	0e 7f       	andi	r16, 0xFE	; 254
    10f2:	c1 16       	cp	r12, r17
    10f4:	50 f4       	brcc	.+20     	; 0x110a <vfprintf+0x59a>
    10f6:	94 fe       	sbrs	r9, 4
    10f8:	0a c0       	rjmp	.+20     	; 0x110e <vfprintf+0x59e>
    10fa:	92 fc       	sbrc	r9, 2
    10fc:	08 c0       	rjmp	.+16     	; 0x110e <vfprintf+0x59e>
    10fe:	09 2d       	mov	r16, r9
    1100:	0e 7e       	andi	r16, 0xEE	; 238
    1102:	05 c0       	rjmp	.+10     	; 0x110e <vfprintf+0x59e>
    1104:	dc 2c       	mov	r13, r12
    1106:	09 2d       	mov	r16, r9
    1108:	03 c0       	rjmp	.+6      	; 0x1110 <vfprintf+0x5a0>
    110a:	dc 2c       	mov	r13, r12
    110c:	01 c0       	rjmp	.+2      	; 0x1110 <vfprintf+0x5a0>
    110e:	d1 2e       	mov	r13, r17
    1110:	04 ff       	sbrs	r16, 4
    1112:	0d c0       	rjmp	.+26     	; 0x112e <vfprintf+0x5be>
    1114:	fe 01       	movw	r30, r28
    1116:	ec 0d       	add	r30, r12
    1118:	f1 1d       	adc	r31, r1
    111a:	80 81       	ld	r24, Z
    111c:	80 33       	cpi	r24, 0x30	; 48
    111e:	11 f4       	brne	.+4      	; 0x1124 <vfprintf+0x5b4>
    1120:	09 7e       	andi	r16, 0xE9	; 233
    1122:	09 c0       	rjmp	.+18     	; 0x1136 <vfprintf+0x5c6>
    1124:	02 ff       	sbrs	r16, 2
    1126:	06 c0       	rjmp	.+12     	; 0x1134 <vfprintf+0x5c4>
    1128:	d3 94       	inc	r13
    112a:	d3 94       	inc	r13
    112c:	04 c0       	rjmp	.+8      	; 0x1136 <vfprintf+0x5c6>
    112e:	80 2f       	mov	r24, r16
    1130:	86 78       	andi	r24, 0x86	; 134
    1132:	09 f0       	breq	.+2      	; 0x1136 <vfprintf+0x5c6>
    1134:	d3 94       	inc	r13
    1136:	03 fd       	sbrc	r16, 3
    1138:	11 c0       	rjmp	.+34     	; 0x115c <vfprintf+0x5ec>
    113a:	00 ff       	sbrs	r16, 0
    113c:	06 c0       	rjmp	.+12     	; 0x114a <vfprintf+0x5da>
    113e:	1c 2d       	mov	r17, r12
    1140:	d5 14       	cp	r13, r5
    1142:	80 f4       	brcc	.+32     	; 0x1164 <vfprintf+0x5f4>
    1144:	15 0d       	add	r17, r5
    1146:	1d 19       	sub	r17, r13
    1148:	0d c0       	rjmp	.+26     	; 0x1164 <vfprintf+0x5f4>
    114a:	d5 14       	cp	r13, r5
    114c:	58 f4       	brcc	.+22     	; 0x1164 <vfprintf+0x5f4>
    114e:	b7 01       	movw	r22, r14
    1150:	80 e2       	ldi	r24, 0x20	; 32
    1152:	90 e0       	ldi	r25, 0x00	; 0
    1154:	0e 94 7c 0a 	call	0x14f8	; 0x14f8 <fputc>
    1158:	d3 94       	inc	r13
    115a:	f7 cf       	rjmp	.-18     	; 0x114a <vfprintf+0x5da>
    115c:	d5 14       	cp	r13, r5
    115e:	10 f4       	brcc	.+4      	; 0x1164 <vfprintf+0x5f4>
    1160:	5d 18       	sub	r5, r13
    1162:	01 c0       	rjmp	.+2      	; 0x1166 <vfprintf+0x5f6>
    1164:	51 2c       	mov	r5, r1
    1166:	04 ff       	sbrs	r16, 4
    1168:	10 c0       	rjmp	.+32     	; 0x118a <vfprintf+0x61a>
    116a:	b7 01       	movw	r22, r14
    116c:	80 e3       	ldi	r24, 0x30	; 48
    116e:	90 e0       	ldi	r25, 0x00	; 0
    1170:	0e 94 7c 0a 	call	0x14f8	; 0x14f8 <fputc>
    1174:	02 ff       	sbrs	r16, 2
    1176:	17 c0       	rjmp	.+46     	; 0x11a6 <vfprintf+0x636>
    1178:	01 fd       	sbrc	r16, 1
    117a:	03 c0       	rjmp	.+6      	; 0x1182 <vfprintf+0x612>
    117c:	88 e7       	ldi	r24, 0x78	; 120
    117e:	90 e0       	ldi	r25, 0x00	; 0
    1180:	02 c0       	rjmp	.+4      	; 0x1186 <vfprintf+0x616>
    1182:	88 e5       	ldi	r24, 0x58	; 88
    1184:	90 e0       	ldi	r25, 0x00	; 0
    1186:	b7 01       	movw	r22, r14
    1188:	0c c0       	rjmp	.+24     	; 0x11a2 <vfprintf+0x632>
    118a:	80 2f       	mov	r24, r16
    118c:	86 78       	andi	r24, 0x86	; 134
    118e:	59 f0       	breq	.+22     	; 0x11a6 <vfprintf+0x636>
    1190:	01 ff       	sbrs	r16, 1
    1192:	02 c0       	rjmp	.+4      	; 0x1198 <vfprintf+0x628>
    1194:	8b e2       	ldi	r24, 0x2B	; 43
    1196:	01 c0       	rjmp	.+2      	; 0x119a <vfprintf+0x62a>
    1198:	80 e2       	ldi	r24, 0x20	; 32
    119a:	07 fd       	sbrc	r16, 7
    119c:	8d e2       	ldi	r24, 0x2D	; 45
    119e:	b7 01       	movw	r22, r14
    11a0:	90 e0       	ldi	r25, 0x00	; 0
    11a2:	0e 94 7c 0a 	call	0x14f8	; 0x14f8 <fputc>
    11a6:	c1 16       	cp	r12, r17
    11a8:	38 f4       	brcc	.+14     	; 0x11b8 <vfprintf+0x648>
    11aa:	b7 01       	movw	r22, r14
    11ac:	80 e3       	ldi	r24, 0x30	; 48
    11ae:	90 e0       	ldi	r25, 0x00	; 0
    11b0:	0e 94 7c 0a 	call	0x14f8	; 0x14f8 <fputc>
    11b4:	11 50       	subi	r17, 0x01	; 1
    11b6:	f7 cf       	rjmp	.-18     	; 0x11a6 <vfprintf+0x636>
    11b8:	ca 94       	dec	r12
    11ba:	f3 01       	movw	r30, r6
    11bc:	ec 0d       	add	r30, r12
    11be:	f1 1d       	adc	r31, r1
    11c0:	80 81       	ld	r24, Z
    11c2:	b7 01       	movw	r22, r14
    11c4:	90 e0       	ldi	r25, 0x00	; 0
    11c6:	0e 94 7c 0a 	call	0x14f8	; 0x14f8 <fputc>
    11ca:	c1 10       	cpse	r12, r1
    11cc:	f5 cf       	rjmp	.-22     	; 0x11b8 <vfprintf+0x648>
    11ce:	15 c0       	rjmp	.+42     	; 0x11fa <vfprintf+0x68a>
    11d0:	f4 e0       	ldi	r31, 0x04	; 4
    11d2:	f5 15       	cp	r31, r5
    11d4:	60 f5       	brcc	.+88     	; 0x122e <vfprintf+0x6be>
    11d6:	84 e0       	ldi	r24, 0x04	; 4
    11d8:	58 1a       	sub	r5, r24
    11da:	93 fe       	sbrs	r9, 3
    11dc:	1f c0       	rjmp	.+62     	; 0x121c <vfprintf+0x6ac>
    11de:	01 11       	cpse	r16, r1
    11e0:	27 c0       	rjmp	.+78     	; 0x1230 <vfprintf+0x6c0>
    11e2:	2c 85       	ldd	r18, Y+12	; 0x0c
    11e4:	23 ff       	sbrs	r18, 3
    11e6:	2a c0       	rjmp	.+84     	; 0x123c <vfprintf+0x6cc>
    11e8:	08 e6       	ldi	r16, 0x68	; 104
    11ea:	10 e0       	ldi	r17, 0x00	; 0
    11ec:	39 2d       	mov	r19, r9
    11ee:	30 71       	andi	r19, 0x10	; 16
    11f0:	93 2e       	mov	r9, r19
    11f2:	f8 01       	movw	r30, r16
    11f4:	84 91       	lpm	r24, Z
    11f6:	81 11       	cpse	r24, r1
    11f8:	24 c0       	rjmp	.+72     	; 0x1242 <vfprintf+0x6d2>
    11fa:	55 20       	and	r5, r5
    11fc:	09 f4       	brne	.+2      	; 0x1200 <vfprintf+0x690>
    11fe:	e4 cc       	rjmp	.-1592   	; 0xbc8 <vfprintf+0x58>
    1200:	b7 01       	movw	r22, r14
    1202:	80 e2       	ldi	r24, 0x20	; 32
    1204:	90 e0       	ldi	r25, 0x00	; 0
    1206:	0e 94 7c 0a 	call	0x14f8	; 0x14f8 <fputc>
    120a:	5a 94       	dec	r5
    120c:	f6 cf       	rjmp	.-20     	; 0x11fa <vfprintf+0x68a>
    120e:	f7 01       	movw	r30, r14
    1210:	86 81       	ldd	r24, Z+6	; 0x06
    1212:	97 81       	ldd	r25, Z+7	; 0x07
    1214:	26 c0       	rjmp	.+76     	; 0x1262 <vfprintf+0x6f2>
    1216:	8f ef       	ldi	r24, 0xFF	; 255
    1218:	9f ef       	ldi	r25, 0xFF	; 255
    121a:	23 c0       	rjmp	.+70     	; 0x1262 <vfprintf+0x6f2>
    121c:	b7 01       	movw	r22, r14
    121e:	80 e2       	ldi	r24, 0x20	; 32
    1220:	90 e0       	ldi	r25, 0x00	; 0
    1222:	0e 94 7c 0a 	call	0x14f8	; 0x14f8 <fputc>
    1226:	5a 94       	dec	r5
    1228:	51 10       	cpse	r5, r1
    122a:	f8 cf       	rjmp	.-16     	; 0x121c <vfprintf+0x6ac>
    122c:	d8 cf       	rjmp	.-80     	; 0x11de <vfprintf+0x66e>
    122e:	51 2c       	mov	r5, r1
    1230:	b7 01       	movw	r22, r14
    1232:	80 2f       	mov	r24, r16
    1234:	90 e0       	ldi	r25, 0x00	; 0
    1236:	0e 94 7c 0a 	call	0x14f8	; 0x14f8 <fputc>
    123a:	d3 cf       	rjmp	.-90     	; 0x11e2 <vfprintf+0x672>
    123c:	0c e6       	ldi	r16, 0x6C	; 108
    123e:	10 e0       	ldi	r17, 0x00	; 0
    1240:	d5 cf       	rjmp	.-86     	; 0x11ec <vfprintf+0x67c>
    1242:	91 10       	cpse	r9, r1
    1244:	80 52       	subi	r24, 0x20	; 32
    1246:	b7 01       	movw	r22, r14
    1248:	90 e0       	ldi	r25, 0x00	; 0
    124a:	0e 94 7c 0a 	call	0x14f8	; 0x14f8 <fputc>
    124e:	0f 5f       	subi	r16, 0xFF	; 255
    1250:	1f 4f       	sbci	r17, 0xFF	; 255
    1252:	cf cf       	rjmp	.-98     	; 0x11f2 <vfprintf+0x682>
    1254:	23 e0       	ldi	r18, 0x03	; 3
    1256:	25 15       	cp	r18, r5
    1258:	10 f4       	brcc	.+4      	; 0x125e <vfprintf+0x6ee>
    125a:	83 e0       	ldi	r24, 0x03	; 3
    125c:	bd cf       	rjmp	.-134    	; 0x11d8 <vfprintf+0x668>
    125e:	51 2c       	mov	r5, r1
    1260:	c0 cf       	rjmp	.-128    	; 0x11e2 <vfprintf+0x672>
    1262:	60 96       	adiw	r28, 0x10	; 16
    1264:	e2 e1       	ldi	r30, 0x12	; 18
    1266:	0c 94 73 09 	jmp	0x12e6	; 0x12e6 <__epilogue_restores__>

0000126a <__udivmodsi4>:
    126a:	a1 e2       	ldi	r26, 0x21	; 33
    126c:	1a 2e       	mov	r1, r26
    126e:	aa 1b       	sub	r26, r26
    1270:	bb 1b       	sub	r27, r27
    1272:	fd 01       	movw	r30, r26
    1274:	0d c0       	rjmp	.+26     	; 0x1290 <__udivmodsi4_ep>

00001276 <__udivmodsi4_loop>:
    1276:	aa 1f       	adc	r26, r26
    1278:	bb 1f       	adc	r27, r27
    127a:	ee 1f       	adc	r30, r30
    127c:	ff 1f       	adc	r31, r31
    127e:	a2 17       	cp	r26, r18
    1280:	b3 07       	cpc	r27, r19
    1282:	e4 07       	cpc	r30, r20
    1284:	f5 07       	cpc	r31, r21
    1286:	20 f0       	brcs	.+8      	; 0x1290 <__udivmodsi4_ep>
    1288:	a2 1b       	sub	r26, r18
    128a:	b3 0b       	sbc	r27, r19
    128c:	e4 0b       	sbc	r30, r20
    128e:	f5 0b       	sbc	r31, r21

00001290 <__udivmodsi4_ep>:
    1290:	66 1f       	adc	r22, r22
    1292:	77 1f       	adc	r23, r23
    1294:	88 1f       	adc	r24, r24
    1296:	99 1f       	adc	r25, r25
    1298:	1a 94       	dec	r1
    129a:	69 f7       	brne	.-38     	; 0x1276 <__udivmodsi4_loop>
    129c:	60 95       	com	r22
    129e:	70 95       	com	r23
    12a0:	80 95       	com	r24
    12a2:	90 95       	com	r25
    12a4:	9b 01       	movw	r18, r22
    12a6:	ac 01       	movw	r20, r24
    12a8:	bd 01       	movw	r22, r26
    12aa:	cf 01       	movw	r24, r30
    12ac:	08 95       	ret

000012ae <__prologue_saves__>:
    12ae:	2f 92       	push	r2
    12b0:	3f 92       	push	r3
    12b2:	4f 92       	push	r4
    12b4:	5f 92       	push	r5
    12b6:	6f 92       	push	r6
    12b8:	7f 92       	push	r7
    12ba:	8f 92       	push	r8
    12bc:	9f 92       	push	r9
    12be:	af 92       	push	r10
    12c0:	bf 92       	push	r11
    12c2:	cf 92       	push	r12
    12c4:	df 92       	push	r13
    12c6:	ef 92       	push	r14
    12c8:	ff 92       	push	r15
    12ca:	0f 93       	push	r16
    12cc:	1f 93       	push	r17
    12ce:	cf 93       	push	r28
    12d0:	df 93       	push	r29
    12d2:	cd b7       	in	r28, 0x3d	; 61
    12d4:	de b7       	in	r29, 0x3e	; 62
    12d6:	ca 1b       	sub	r28, r26
    12d8:	db 0b       	sbc	r29, r27
    12da:	0f b6       	in	r0, 0x3f	; 63
    12dc:	f8 94       	cli
    12de:	de bf       	out	0x3e, r29	; 62
    12e0:	0f be       	out	0x3f, r0	; 63
    12e2:	cd bf       	out	0x3d, r28	; 61
    12e4:	09 94       	ijmp

000012e6 <__epilogue_restores__>:
    12e6:	2a 88       	ldd	r2, Y+18	; 0x12
    12e8:	39 88       	ldd	r3, Y+17	; 0x11
    12ea:	48 88       	ldd	r4, Y+16	; 0x10
    12ec:	5f 84       	ldd	r5, Y+15	; 0x0f
    12ee:	6e 84       	ldd	r6, Y+14	; 0x0e
    12f0:	7d 84       	ldd	r7, Y+13	; 0x0d
    12f2:	8c 84       	ldd	r8, Y+12	; 0x0c
    12f4:	9b 84       	ldd	r9, Y+11	; 0x0b
    12f6:	aa 84       	ldd	r10, Y+10	; 0x0a
    12f8:	b9 84       	ldd	r11, Y+9	; 0x09
    12fa:	c8 84       	ldd	r12, Y+8	; 0x08
    12fc:	df 80       	ldd	r13, Y+7	; 0x07
    12fe:	ee 80       	ldd	r14, Y+6	; 0x06
    1300:	fd 80       	ldd	r15, Y+5	; 0x05
    1302:	0c 81       	ldd	r16, Y+4	; 0x04
    1304:	1b 81       	ldd	r17, Y+3	; 0x03
    1306:	aa 81       	ldd	r26, Y+2	; 0x02
    1308:	b9 81       	ldd	r27, Y+1	; 0x01
    130a:	ce 0f       	add	r28, r30
    130c:	d1 1d       	adc	r29, r1
    130e:	0f b6       	in	r0, 0x3f	; 63
    1310:	f8 94       	cli
    1312:	de bf       	out	0x3e, r29	; 62
    1314:	0f be       	out	0x3f, r0	; 63
    1316:	cd bf       	out	0x3d, r28	; 61
    1318:	ed 01       	movw	r28, r26
    131a:	08 95       	ret

0000131c <__ftoa_engine>:
    131c:	28 30       	cpi	r18, 0x08	; 8
    131e:	08 f0       	brcs	.+2      	; 0x1322 <__ftoa_engine+0x6>
    1320:	27 e0       	ldi	r18, 0x07	; 7
    1322:	33 27       	eor	r19, r19
    1324:	da 01       	movw	r26, r20
    1326:	99 0f       	add	r25, r25
    1328:	31 1d       	adc	r19, r1
    132a:	87 fd       	sbrc	r24, 7
    132c:	91 60       	ori	r25, 0x01	; 1
    132e:	00 96       	adiw	r24, 0x00	; 0
    1330:	61 05       	cpc	r22, r1
    1332:	71 05       	cpc	r23, r1
    1334:	39 f4       	brne	.+14     	; 0x1344 <__ftoa_engine+0x28>
    1336:	32 60       	ori	r19, 0x02	; 2
    1338:	2e 5f       	subi	r18, 0xFE	; 254
    133a:	3d 93       	st	X+, r19
    133c:	30 e3       	ldi	r19, 0x30	; 48
    133e:	2a 95       	dec	r18
    1340:	e1 f7       	brne	.-8      	; 0x133a <__ftoa_engine+0x1e>
    1342:	08 95       	ret
    1344:	9f 3f       	cpi	r25, 0xFF	; 255
    1346:	30 f0       	brcs	.+12     	; 0x1354 <__ftoa_engine+0x38>
    1348:	80 38       	cpi	r24, 0x80	; 128
    134a:	71 05       	cpc	r23, r1
    134c:	61 05       	cpc	r22, r1
    134e:	09 f0       	breq	.+2      	; 0x1352 <__ftoa_engine+0x36>
    1350:	3c 5f       	subi	r19, 0xFC	; 252
    1352:	3c 5f       	subi	r19, 0xFC	; 252
    1354:	3d 93       	st	X+, r19
    1356:	91 30       	cpi	r25, 0x01	; 1
    1358:	08 f0       	brcs	.+2      	; 0x135c <__ftoa_engine+0x40>
    135a:	80 68       	ori	r24, 0x80	; 128
    135c:	91 1d       	adc	r25, r1
    135e:	df 93       	push	r29
    1360:	cf 93       	push	r28
    1362:	1f 93       	push	r17
    1364:	0f 93       	push	r16
    1366:	ff 92       	push	r15
    1368:	ef 92       	push	r14
    136a:	19 2f       	mov	r17, r25
    136c:	98 7f       	andi	r25, 0xF8	; 248
    136e:	96 95       	lsr	r25
    1370:	e9 2f       	mov	r30, r25
    1372:	96 95       	lsr	r25
    1374:	96 95       	lsr	r25
    1376:	e9 0f       	add	r30, r25
    1378:	ff 27       	eor	r31, r31
    137a:	e6 53       	subi	r30, 0x36	; 54
    137c:	ff 4f       	sbci	r31, 0xFF	; 255
    137e:	99 27       	eor	r25, r25
    1380:	33 27       	eor	r19, r19
    1382:	ee 24       	eor	r14, r14
    1384:	ff 24       	eor	r15, r15
    1386:	a7 01       	movw	r20, r14
    1388:	e7 01       	movw	r28, r14
    138a:	05 90       	lpm	r0, Z+
    138c:	08 94       	sec
    138e:	07 94       	ror	r0
    1390:	28 f4       	brcc	.+10     	; 0x139c <__ftoa_engine+0x80>
    1392:	36 0f       	add	r19, r22
    1394:	e7 1e       	adc	r14, r23
    1396:	f8 1e       	adc	r15, r24
    1398:	49 1f       	adc	r20, r25
    139a:	51 1d       	adc	r21, r1
    139c:	66 0f       	add	r22, r22
    139e:	77 1f       	adc	r23, r23
    13a0:	88 1f       	adc	r24, r24
    13a2:	99 1f       	adc	r25, r25
    13a4:	06 94       	lsr	r0
    13a6:	a1 f7       	brne	.-24     	; 0x1390 <__ftoa_engine+0x74>
    13a8:	05 90       	lpm	r0, Z+
    13aa:	07 94       	ror	r0
    13ac:	28 f4       	brcc	.+10     	; 0x13b8 <__ftoa_engine+0x9c>
    13ae:	e7 0e       	add	r14, r23
    13b0:	f8 1e       	adc	r15, r24
    13b2:	49 1f       	adc	r20, r25
    13b4:	56 1f       	adc	r21, r22
    13b6:	c1 1d       	adc	r28, r1
    13b8:	77 0f       	add	r23, r23
    13ba:	88 1f       	adc	r24, r24
    13bc:	99 1f       	adc	r25, r25
    13be:	66 1f       	adc	r22, r22
    13c0:	06 94       	lsr	r0
    13c2:	a1 f7       	brne	.-24     	; 0x13ac <__ftoa_engine+0x90>
    13c4:	05 90       	lpm	r0, Z+
    13c6:	07 94       	ror	r0
    13c8:	28 f4       	brcc	.+10     	; 0x13d4 <__ftoa_engine+0xb8>
    13ca:	f8 0e       	add	r15, r24
    13cc:	49 1f       	adc	r20, r25
    13ce:	56 1f       	adc	r21, r22
    13d0:	c7 1f       	adc	r28, r23
    13d2:	d1 1d       	adc	r29, r1
    13d4:	88 0f       	add	r24, r24
    13d6:	99 1f       	adc	r25, r25
    13d8:	66 1f       	adc	r22, r22
    13da:	77 1f       	adc	r23, r23
    13dc:	06 94       	lsr	r0
    13de:	a1 f7       	brne	.-24     	; 0x13c8 <__ftoa_engine+0xac>
    13e0:	05 90       	lpm	r0, Z+
    13e2:	07 94       	ror	r0
    13e4:	20 f4       	brcc	.+8      	; 0x13ee <__ftoa_engine+0xd2>
    13e6:	49 0f       	add	r20, r25
    13e8:	56 1f       	adc	r21, r22
    13ea:	c7 1f       	adc	r28, r23
    13ec:	d8 1f       	adc	r29, r24
    13ee:	99 0f       	add	r25, r25
    13f0:	66 1f       	adc	r22, r22
    13f2:	77 1f       	adc	r23, r23
    13f4:	88 1f       	adc	r24, r24
    13f6:	06 94       	lsr	r0
    13f8:	a9 f7       	brne	.-22     	; 0x13e4 <__ftoa_engine+0xc8>
    13fa:	84 91       	lpm	r24, Z
    13fc:	10 95       	com	r17
    13fe:	17 70       	andi	r17, 0x07	; 7
    1400:	41 f0       	breq	.+16     	; 0x1412 <__ftoa_engine+0xf6>
    1402:	d6 95       	lsr	r29
    1404:	c7 95       	ror	r28
    1406:	57 95       	ror	r21
    1408:	47 95       	ror	r20
    140a:	f7 94       	ror	r15
    140c:	e7 94       	ror	r14
    140e:	1a 95       	dec	r17
    1410:	c1 f7       	brne	.-16     	; 0x1402 <__ftoa_engine+0xe6>
    1412:	e0 e7       	ldi	r30, 0x70	; 112
    1414:	f0 e0       	ldi	r31, 0x00	; 0
    1416:	68 94       	set
    1418:	15 90       	lpm	r1, Z+
    141a:	15 91       	lpm	r17, Z+
    141c:	35 91       	lpm	r19, Z+
    141e:	65 91       	lpm	r22, Z+
    1420:	95 91       	lpm	r25, Z+
    1422:	05 90       	lpm	r0, Z+
    1424:	7f e2       	ldi	r23, 0x2F	; 47
    1426:	73 95       	inc	r23
    1428:	e1 18       	sub	r14, r1
    142a:	f1 0a       	sbc	r15, r17
    142c:	43 0b       	sbc	r20, r19
    142e:	56 0b       	sbc	r21, r22
    1430:	c9 0b       	sbc	r28, r25
    1432:	d0 09       	sbc	r29, r0
    1434:	c0 f7       	brcc	.-16     	; 0x1426 <__ftoa_engine+0x10a>
    1436:	e1 0c       	add	r14, r1
    1438:	f1 1e       	adc	r15, r17
    143a:	43 1f       	adc	r20, r19
    143c:	56 1f       	adc	r21, r22
    143e:	c9 1f       	adc	r28, r25
    1440:	d0 1d       	adc	r29, r0
    1442:	7e f4       	brtc	.+30     	; 0x1462 <__ftoa_engine+0x146>
    1444:	70 33       	cpi	r23, 0x30	; 48
    1446:	11 f4       	brne	.+4      	; 0x144c <__ftoa_engine+0x130>
    1448:	8a 95       	dec	r24
    144a:	e6 cf       	rjmp	.-52     	; 0x1418 <__ftoa_engine+0xfc>
    144c:	e8 94       	clt
    144e:	01 50       	subi	r16, 0x01	; 1
    1450:	30 f0       	brcs	.+12     	; 0x145e <__ftoa_engine+0x142>
    1452:	08 0f       	add	r16, r24
    1454:	0a f4       	brpl	.+2      	; 0x1458 <__ftoa_engine+0x13c>
    1456:	00 27       	eor	r16, r16
    1458:	02 17       	cp	r16, r18
    145a:	08 f4       	brcc	.+2      	; 0x145e <__ftoa_engine+0x142>
    145c:	20 2f       	mov	r18, r16
    145e:	23 95       	inc	r18
    1460:	02 2f       	mov	r16, r18
    1462:	7a 33       	cpi	r23, 0x3A	; 58
    1464:	28 f0       	brcs	.+10     	; 0x1470 <__ftoa_engine+0x154>
    1466:	79 e3       	ldi	r23, 0x39	; 57
    1468:	7d 93       	st	X+, r23
    146a:	2a 95       	dec	r18
    146c:	e9 f7       	brne	.-6      	; 0x1468 <__ftoa_engine+0x14c>
    146e:	10 c0       	rjmp	.+32     	; 0x1490 <__ftoa_engine+0x174>
    1470:	7d 93       	st	X+, r23
    1472:	2a 95       	dec	r18
    1474:	89 f6       	brne	.-94     	; 0x1418 <__ftoa_engine+0xfc>
    1476:	06 94       	lsr	r0
    1478:	97 95       	ror	r25
    147a:	67 95       	ror	r22
    147c:	37 95       	ror	r19
    147e:	17 95       	ror	r17
    1480:	17 94       	ror	r1
    1482:	e1 18       	sub	r14, r1
    1484:	f1 0a       	sbc	r15, r17
    1486:	43 0b       	sbc	r20, r19
    1488:	56 0b       	sbc	r21, r22
    148a:	c9 0b       	sbc	r28, r25
    148c:	d0 09       	sbc	r29, r0
    148e:	98 f0       	brcs	.+38     	; 0x14b6 <__ftoa_engine+0x19a>
    1490:	23 95       	inc	r18
    1492:	7e 91       	ld	r23, -X
    1494:	73 95       	inc	r23
    1496:	7a 33       	cpi	r23, 0x3A	; 58
    1498:	08 f0       	brcs	.+2      	; 0x149c <__ftoa_engine+0x180>
    149a:	70 e3       	ldi	r23, 0x30	; 48
    149c:	7c 93       	st	X, r23
    149e:	20 13       	cpse	r18, r16
    14a0:	b8 f7       	brcc	.-18     	; 0x1490 <__ftoa_engine+0x174>
    14a2:	7e 91       	ld	r23, -X
    14a4:	70 61       	ori	r23, 0x10	; 16
    14a6:	7d 93       	st	X+, r23
    14a8:	30 f0       	brcs	.+12     	; 0x14b6 <__ftoa_engine+0x19a>
    14aa:	83 95       	inc	r24
    14ac:	71 e3       	ldi	r23, 0x31	; 49
    14ae:	7d 93       	st	X+, r23
    14b0:	70 e3       	ldi	r23, 0x30	; 48
    14b2:	2a 95       	dec	r18
    14b4:	e1 f7       	brne	.-8      	; 0x14ae <__ftoa_engine+0x192>
    14b6:	11 24       	eor	r1, r1
    14b8:	ef 90       	pop	r14
    14ba:	ff 90       	pop	r15
    14bc:	0f 91       	pop	r16
    14be:	1f 91       	pop	r17
    14c0:	cf 91       	pop	r28
    14c2:	df 91       	pop	r29
    14c4:	99 27       	eor	r25, r25
    14c6:	87 fd       	sbrc	r24, 7
    14c8:	90 95       	com	r25
    14ca:	08 95       	ret

000014cc <strnlen_P>:
    14cc:	fc 01       	movw	r30, r24
    14ce:	05 90       	lpm	r0, Z+
    14d0:	61 50       	subi	r22, 0x01	; 1
    14d2:	70 40       	sbci	r23, 0x00	; 0
    14d4:	01 10       	cpse	r0, r1
    14d6:	d8 f7       	brcc	.-10     	; 0x14ce <strnlen_P+0x2>
    14d8:	80 95       	com	r24
    14da:	90 95       	com	r25
    14dc:	8e 0f       	add	r24, r30
    14de:	9f 1f       	adc	r25, r31
    14e0:	08 95       	ret

000014e2 <strnlen>:
    14e2:	fc 01       	movw	r30, r24
    14e4:	61 50       	subi	r22, 0x01	; 1
    14e6:	70 40       	sbci	r23, 0x00	; 0
    14e8:	01 90       	ld	r0, Z+
    14ea:	01 10       	cpse	r0, r1
    14ec:	d8 f7       	brcc	.-10     	; 0x14e4 <strnlen+0x2>
    14ee:	80 95       	com	r24
    14f0:	90 95       	com	r25
    14f2:	8e 0f       	add	r24, r30
    14f4:	9f 1f       	adc	r25, r31
    14f6:	08 95       	ret

000014f8 <fputc>:
    14f8:	0f 93       	push	r16
    14fa:	1f 93       	push	r17
    14fc:	cf 93       	push	r28
    14fe:	df 93       	push	r29
    1500:	fb 01       	movw	r30, r22
    1502:	23 81       	ldd	r18, Z+3	; 0x03
    1504:	21 fd       	sbrc	r18, 1
    1506:	03 c0       	rjmp	.+6      	; 0x150e <fputc+0x16>
    1508:	8f ef       	ldi	r24, 0xFF	; 255
    150a:	9f ef       	ldi	r25, 0xFF	; 255
    150c:	2c c0       	rjmp	.+88     	; 0x1566 <fputc+0x6e>
    150e:	22 ff       	sbrs	r18, 2
    1510:	16 c0       	rjmp	.+44     	; 0x153e <fputc+0x46>
    1512:	46 81       	ldd	r20, Z+6	; 0x06
    1514:	57 81       	ldd	r21, Z+7	; 0x07
    1516:	24 81       	ldd	r18, Z+4	; 0x04
    1518:	35 81       	ldd	r19, Z+5	; 0x05
    151a:	42 17       	cp	r20, r18
    151c:	53 07       	cpc	r21, r19
    151e:	44 f4       	brge	.+16     	; 0x1530 <fputc+0x38>
    1520:	a0 81       	ld	r26, Z
    1522:	b1 81       	ldd	r27, Z+1	; 0x01
    1524:	9d 01       	movw	r18, r26
    1526:	2f 5f       	subi	r18, 0xFF	; 255
    1528:	3f 4f       	sbci	r19, 0xFF	; 255
    152a:	31 83       	std	Z+1, r19	; 0x01
    152c:	20 83       	st	Z, r18
    152e:	8c 93       	st	X, r24
    1530:	26 81       	ldd	r18, Z+6	; 0x06
    1532:	37 81       	ldd	r19, Z+7	; 0x07
    1534:	2f 5f       	subi	r18, 0xFF	; 255
    1536:	3f 4f       	sbci	r19, 0xFF	; 255
    1538:	37 83       	std	Z+7, r19	; 0x07
    153a:	26 83       	std	Z+6, r18	; 0x06
    153c:	14 c0       	rjmp	.+40     	; 0x1566 <fputc+0x6e>
    153e:	8b 01       	movw	r16, r22
    1540:	ec 01       	movw	r28, r24
    1542:	fb 01       	movw	r30, r22
    1544:	00 84       	ldd	r0, Z+8	; 0x08
    1546:	f1 85       	ldd	r31, Z+9	; 0x09
    1548:	e0 2d       	mov	r30, r0
    154a:	09 95       	icall
    154c:	89 2b       	or	r24, r25
    154e:	e1 f6       	brne	.-72     	; 0x1508 <fputc+0x10>
    1550:	d8 01       	movw	r26, r16
    1552:	16 96       	adiw	r26, 0x06	; 6
    1554:	8d 91       	ld	r24, X+
    1556:	9c 91       	ld	r25, X
    1558:	17 97       	sbiw	r26, 0x07	; 7
    155a:	01 96       	adiw	r24, 0x01	; 1
    155c:	17 96       	adiw	r26, 0x07	; 7
    155e:	9c 93       	st	X, r25
    1560:	8e 93       	st	-X, r24
    1562:	16 97       	sbiw	r26, 0x06	; 6
    1564:	ce 01       	movw	r24, r28
    1566:	df 91       	pop	r29
    1568:	cf 91       	pop	r28
    156a:	1f 91       	pop	r17
    156c:	0f 91       	pop	r16
    156e:	08 95       	ret

00001570 <sprintf>:
    1570:	ae e0       	ldi	r26, 0x0E	; 14
    1572:	b0 e0       	ldi	r27, 0x00	; 0
    1574:	ee eb       	ldi	r30, 0xBE	; 190
    1576:	fa e0       	ldi	r31, 0x0A	; 10
    1578:	0c 94 65 09 	jmp	0x12ca	; 0x12ca <__prologue_saves__+0x1c>
    157c:	0d 89       	ldd	r16, Y+21	; 0x15
    157e:	1e 89       	ldd	r17, Y+22	; 0x16
    1580:	86 e0       	ldi	r24, 0x06	; 6
    1582:	8c 83       	std	Y+4, r24	; 0x04
    1584:	1a 83       	std	Y+2, r17	; 0x02
    1586:	09 83       	std	Y+1, r16	; 0x01
    1588:	8f ef       	ldi	r24, 0xFF	; 255
    158a:	9f e7       	ldi	r25, 0x7F	; 127
    158c:	9e 83       	std	Y+6, r25	; 0x06
    158e:	8d 83       	std	Y+5, r24	; 0x05
    1590:	ae 01       	movw	r20, r28
    1592:	47 5e       	subi	r20, 0xE7	; 231
    1594:	5f 4f       	sbci	r21, 0xFF	; 255
    1596:	6f 89       	ldd	r22, Y+23	; 0x17
    1598:	78 8d       	ldd	r23, Y+24	; 0x18
    159a:	ce 01       	movw	r24, r28
    159c:	01 96       	adiw	r24, 0x01	; 1
    159e:	0e 94 b8 05 	call	0xb70	; 0xb70 <vfprintf>
    15a2:	ef 81       	ldd	r30, Y+7	; 0x07
    15a4:	f8 85       	ldd	r31, Y+8	; 0x08
    15a6:	e0 0f       	add	r30, r16
    15a8:	f1 1f       	adc	r31, r17
    15aa:	10 82       	st	Z, r1
    15ac:	2e 96       	adiw	r28, 0x0e	; 14
    15ae:	e4 e0       	ldi	r30, 0x04	; 4
    15b0:	0c 94 81 09 	jmp	0x1302	; 0x1302 <__epilogue_restores__+0x1c>

000015b4 <__ultoa_invert>:
    15b4:	fa 01       	movw	r30, r20
    15b6:	aa 27       	eor	r26, r26
    15b8:	28 30       	cpi	r18, 0x08	; 8
    15ba:	51 f1       	breq	.+84     	; 0x1610 <__ultoa_invert+0x5c>
    15bc:	20 31       	cpi	r18, 0x10	; 16
    15be:	81 f1       	breq	.+96     	; 0x1620 <__ultoa_invert+0x6c>
    15c0:	e8 94       	clt
    15c2:	6f 93       	push	r22
    15c4:	6e 7f       	andi	r22, 0xFE	; 254
    15c6:	6e 5f       	subi	r22, 0xFE	; 254
    15c8:	7f 4f       	sbci	r23, 0xFF	; 255
    15ca:	8f 4f       	sbci	r24, 0xFF	; 255
    15cc:	9f 4f       	sbci	r25, 0xFF	; 255
    15ce:	af 4f       	sbci	r26, 0xFF	; 255
    15d0:	b1 e0       	ldi	r27, 0x01	; 1
    15d2:	3e d0       	rcall	.+124    	; 0x1650 <__ultoa_invert+0x9c>
    15d4:	b4 e0       	ldi	r27, 0x04	; 4
    15d6:	3c d0       	rcall	.+120    	; 0x1650 <__ultoa_invert+0x9c>
    15d8:	67 0f       	add	r22, r23
    15da:	78 1f       	adc	r23, r24
    15dc:	89 1f       	adc	r24, r25
    15de:	9a 1f       	adc	r25, r26
    15e0:	a1 1d       	adc	r26, r1
    15e2:	68 0f       	add	r22, r24
    15e4:	79 1f       	adc	r23, r25
    15e6:	8a 1f       	adc	r24, r26
    15e8:	91 1d       	adc	r25, r1
    15ea:	a1 1d       	adc	r26, r1
    15ec:	6a 0f       	add	r22, r26
    15ee:	71 1d       	adc	r23, r1
    15f0:	81 1d       	adc	r24, r1
    15f2:	91 1d       	adc	r25, r1
    15f4:	a1 1d       	adc	r26, r1
    15f6:	20 d0       	rcall	.+64     	; 0x1638 <__ultoa_invert+0x84>
    15f8:	09 f4       	brne	.+2      	; 0x15fc <__ultoa_invert+0x48>
    15fa:	68 94       	set
    15fc:	3f 91       	pop	r19
    15fe:	2a e0       	ldi	r18, 0x0A	; 10
    1600:	26 9f       	mul	r18, r22
    1602:	11 24       	eor	r1, r1
    1604:	30 19       	sub	r19, r0
    1606:	30 5d       	subi	r19, 0xD0	; 208
    1608:	31 93       	st	Z+, r19
    160a:	de f6       	brtc	.-74     	; 0x15c2 <__ultoa_invert+0xe>
    160c:	cf 01       	movw	r24, r30
    160e:	08 95       	ret
    1610:	46 2f       	mov	r20, r22
    1612:	47 70       	andi	r20, 0x07	; 7
    1614:	40 5d       	subi	r20, 0xD0	; 208
    1616:	41 93       	st	Z+, r20
    1618:	b3 e0       	ldi	r27, 0x03	; 3
    161a:	0f d0       	rcall	.+30     	; 0x163a <__ultoa_invert+0x86>
    161c:	c9 f7       	brne	.-14     	; 0x1610 <__ultoa_invert+0x5c>
    161e:	f6 cf       	rjmp	.-20     	; 0x160c <__ultoa_invert+0x58>
    1620:	46 2f       	mov	r20, r22
    1622:	4f 70       	andi	r20, 0x0F	; 15
    1624:	40 5d       	subi	r20, 0xD0	; 208
    1626:	4a 33       	cpi	r20, 0x3A	; 58
    1628:	18 f0       	brcs	.+6      	; 0x1630 <__ultoa_invert+0x7c>
    162a:	49 5d       	subi	r20, 0xD9	; 217
    162c:	31 fd       	sbrc	r19, 1
    162e:	40 52       	subi	r20, 0x20	; 32
    1630:	41 93       	st	Z+, r20
    1632:	02 d0       	rcall	.+4      	; 0x1638 <__ultoa_invert+0x84>
    1634:	a9 f7       	brne	.-22     	; 0x1620 <__ultoa_invert+0x6c>
    1636:	ea cf       	rjmp	.-44     	; 0x160c <__ultoa_invert+0x58>
    1638:	b4 e0       	ldi	r27, 0x04	; 4
    163a:	a6 95       	lsr	r26
    163c:	97 95       	ror	r25
    163e:	87 95       	ror	r24
    1640:	77 95       	ror	r23
    1642:	67 95       	ror	r22
    1644:	ba 95       	dec	r27
    1646:	c9 f7       	brne	.-14     	; 0x163a <__ultoa_invert+0x86>
    1648:	00 97       	sbiw	r24, 0x00	; 0
    164a:	61 05       	cpc	r22, r1
    164c:	71 05       	cpc	r23, r1
    164e:	08 95       	ret
    1650:	9b 01       	movw	r18, r22
    1652:	ac 01       	movw	r20, r24
    1654:	0a 2e       	mov	r0, r26
    1656:	06 94       	lsr	r0
    1658:	57 95       	ror	r21
    165a:	47 95       	ror	r20
    165c:	37 95       	ror	r19
    165e:	27 95       	ror	r18
    1660:	ba 95       	dec	r27
    1662:	c9 f7       	brne	.-14     	; 0x1656 <__ultoa_invert+0xa2>
    1664:	62 0f       	add	r22, r18
    1666:	73 1f       	adc	r23, r19
    1668:	84 1f       	adc	r24, r20
    166a:	95 1f       	adc	r25, r21
    166c:	a0 1d       	adc	r26, r0
    166e:	08 95       	ret

00001670 <_exit>:
    1670:	f8 94       	cli

00001672 <__stop_program>:
    1672:	ff cf       	rjmp	.-2      	; 0x1672 <__stop_program>
